ARM GAS  /tmp/ccLqv4Ll.s 			page 1


   1              		.syntax unified
   2              		.cpu cortex-m3
   3              		.fpu softvfp
   4              		.eabi_attribute 20, 1	@ Tag_ABI_FP_denormal
   5              		.eabi_attribute 21, 1	@ Tag_ABI_FP_exceptions
   6              		.eabi_attribute 23, 3	@ Tag_ABI_FP_number_model
   7              		.eabi_attribute 24, 1	@ Tag_ABI_align8_needed
   8              		.eabi_attribute 25, 1	@ Tag_ABI_align8_preserved
   9              		.eabi_attribute 26, 1	@ Tag_ABI_enum_size
  10              		.eabi_attribute 30, 6	@ Tag_ABI_optimization_goals
  11              		.eabi_attribute 34, 1	@ Tag_CPU_unaligned_access
  12              		.eabi_attribute 18, 4	@ Tag_ABI_PCS_wchar_t
  13              		.file	"hal.c"
  14              	@ GNU C (GNU Tools for ARM Embedded Processors) version 4.8.3 20131129 (release) [ARM/embedded-4_8-
  15              	@	compiled by GNU C version 4.3.6, GMP version 4.3.2, MPFR version 2.4.2, MPC version 0.8.1
  16              	@ GGC heuristics: --param ggc-min-expand=100 --param ggc-min-heapsize=131072
  17              	@ options passed:  -I . -I ./inc
  18              	@ -I /home/zbanks//STM32L1xx_StdPeriph_Lib_V1.2.0/Libraries/CMSIS/Device/ST/STM32L1xx/Include
  19              	@ -I /home/zbanks//STM32L1xx_StdPeriph_Lib_V1.2.0/Libraries/CMSIS/Include
  20              	@ -I /home/zbanks//STM32L1xx_StdPeriph_Lib_V1.2.0/Libraries/STM32L1xx_StdPeriph_Driver/inc
  21              	@ -I ./inc -imultilib armv7-m
  22              	@ -iprefix /home/zbanks/gcc-arm-none-eabi/bin/../lib/gcc/arm-none-eabi/4.8.3/
  23              	@ -isysroot /home/zbanks/gcc-arm-none-eabi/bin/../arm-none-eabi
  24              	@ -MD src/hal.d -MF .dep/hal.o.d -MP -MQ src/hal.o -D__USES_INITFINI__
  25              	@ -D STM32L1XX_MD -D USE_STDPERIPH_DRIVER -D malloc_getpagesize=256
  26              	@ -D RUN_FROM_FLASH=1 src/hal.c -mcpu=cortex-m3 -mthumb
  27              	@ -auxbase-strip src/hal.o -g -gdwarf-2 -O0 -Wall -Wstrict-prototypes
  28              	@ -std=c99 -fomit-frame-pointer -fverbose-asm
  29              	@ options enabled:  -faggressive-loop-optimizations -fauto-inc-dec
  30              	@ -fbranch-count-reg -fcommon -fdelete-null-pointer-checks -fdwarf2-cfi-asm
  31              	@ -fearly-inlining -feliminate-unused-debug-types -ffunction-cse -fgcse-lm
  32              	@ -fgnu-runtime -fident -finline-atomics -fira-hoist-pressure
  33              	@ -fira-share-save-slots -fira-share-spill-slots -fivopts
  34              	@ -fkeep-static-consts -fleading-underscore -fmath-errno
  35              	@ -fmerge-debug-strings -fmove-loop-invariants -fomit-frame-pointer
  36              	@ -fpeephole -fprefetch-loop-arrays -freg-struct-return
  37              	@ -fsched-critical-path-heuristic -fsched-dep-count-heuristic
  38              	@ -fsched-group-heuristic -fsched-interblock -fsched-last-insn-heuristic
  39              	@ -fsched-rank-heuristic -fsched-spec -fsched-spec-insn-heuristic
  40              	@ -fsched-stalled-insns-dep -fshow-column -fsigned-zeros
  41              	@ -fsplit-ivs-in-unroller -fstrict-volatile-bitfields -fsync-libcalls
  42              	@ -ftrapping-math -ftree-coalesce-vars -ftree-cselim -ftree-forwprop
  43              	@ -ftree-loop-if-convert -ftree-loop-im -ftree-loop-ivcanon
  44              	@ -ftree-loop-optimize -ftree-parallelize-loops= -ftree-phiprop -ftree-pta
  45              	@ -ftree-reassoc -ftree-scev-cprop -ftree-slp-vectorize
  46              	@ -ftree-vect-loop-version -funit-at-a-time -fverbose-asm
  47              	@ -fzero-initialized-in-bss -mfix-cortex-m3-ldrd -mlittle-endian
  48              	@ -mpic-data-is-text-relative -msched-prolog -mthumb -munaligned-access
  49              	@ -mvectorize-with-neon-quad
  50              	
  51              		.text
  52              	.Ltext0:
  53              		.cfi_sections	.debug_frame
  54              		.align	2
  55              		.global	hal_setup
  56              		.thumb
  57              		.thumb_func
ARM GAS  /tmp/ccLqv4Ll.s 			page 2


  58              		.type	hal_setup, %function
  59              	hal_setup:
  60              	.LFB56:
  61              		.file 1 "src/hal.c"
   1:src/hal.c     **** #include "hal.h"
   2:src/hal.c     **** #include "stm32l1xx_adc.h"
   3:src/hal.c     **** #include "stm32l1xx_gpio.h"
   4:src/hal.c     **** #include "stm32l1xx_rcc.h"
   5:src/hal.c     **** 
   6:src/hal.c     **** void hal_setup(){
  62              		.loc 1 6 0
  63              		.cfi_startproc
  64              		@ args = 0, pretend = 0, frame = 0
  65              		@ frame_needed = 0, uses_anonymous_args = 0
  66 0000 08B5     		push	{r3, lr}	@
  67              	.LCFI0:
  68              		.cfi_def_cfa_offset 8
  69              		.cfi_offset 3, -8
  70              		.cfi_offset 14, -4
   7:src/hal.c     ****     adc_setup();
  71              		.loc 1 7 0
  72 0002 FFF7FEFF 		bl	adc_setup	@
   8:src/hal.c     ****     //buck_setup();
   9:src/hal.c     ****     //usb_setup();
  10:src/hal.c     ****     //pwm_setup();
  11:src/hal.c     ****     hbridge_setup();
  73              		.loc 1 11 0
  74 0006 FFF7FEFF 		bl	hbridge_setup	@
  12:src/hal.c     **** }
  75              		.loc 1 12 0
  76 000a 08BD     		pop	{r3, pc}	@
  77              		.cfi_endproc
  78              	.LFE56:
  79              		.size	hal_setup, .-hal_setup
  80              		.align	2
  81              		.global	hbridge_setup
  82              		.thumb
  83              		.thumb_func
  84              		.type	hbridge_setup, %function
  85              	hbridge_setup:
  86              	.LFB57:
  13:src/hal.c     **** 
  14:src/hal.c     **** void hbridge_setup(){
  87              		.loc 1 14 0
  88              		.cfi_startproc
  89              		@ args = 0, pretend = 0, frame = 8
  90              		@ frame_needed = 0, uses_anonymous_args = 0
  91 000c 00B5     		push	{lr}	@
  92              	.LCFI1:
  93              		.cfi_def_cfa_offset 4
  94              		.cfi_offset 14, -4
  95 000e 83B0     		sub	sp, sp, #12	@,,
  96              	.LCFI2:
  97              		.cfi_def_cfa_offset 16
  15:src/hal.c     ****     //TODO: pwm
  16:src/hal.c     ****     static int setup_complete = 0;
  17:src/hal.c     ****     GPIO_InitTypeDef gpio_init;
ARM GAS  /tmp/ccLqv4Ll.s 			page 3


  18:src/hal.c     ****     
  19:src/hal.c     ****     if(setup_complete){
  98              		.loc 1 19 0
  99 0010 124B     		ldr	r3, .L5	@ tmp113,
 100 0012 1B68     		ldr	r3, [r3]	@ setup_complete.0, setup_complete
 101 0014 002B     		cmp	r3, #0	@ setup_complete.0,
 102 0016 1ED1     		bne	.L2	@,
  20:src/hal.c     ****         return;
  21:src/hal.c     ****     }
  22:src/hal.c     ****     // Enable clock for GPIOC & GPIOA
  23:src/hal.c     ****     RCC_AHBPeriphClockCmd(RCC_AHBPeriph_GPIOC | RCC_AHBPeriph_GPIOA, ENABLE);
 103              		.loc 1 23 0
 104 0018 0520     		movs	r0, #5	@,
 105 001a 0121     		movs	r1, #1	@,
 106 001c FFF7FEFF 		bl	RCC_AHBPeriphClockCmd	@
  24:src/hal.c     **** 
  25:src/hal.c     ****     // Init GPIOA
  26:src/hal.c     ****     GPIO_StructInit(&gpio_init);
 107              		.loc 1 26 0
 108 0020 6B46     		mov	r3, sp	@ tmp114,
 109 0022 1846     		mov	r0, r3	@, tmp114
 110 0024 FFF7FEFF 		bl	GPIO_StructInit	@
  27:src/hal.c     ****     gpio_init.GPIO_Pin = GPIO_Pin_1 | GPIO_Pin_2;
 111              		.loc 1 27 0
 112 0028 0623     		movs	r3, #6	@ tmp115,
 113 002a 0093     		str	r3, [sp]	@ tmp115, gpio_init.GPIO_Pin
  28:src/hal.c     ****     gpio_init.GPIO_Mode = GPIO_Mode_OUT;
 114              		.loc 1 28 0
 115 002c 0123     		movs	r3, #1	@ tmp116,
 116 002e 8DF80430 		strb	r3, [sp, #4]	@ tmp117, gpio_init.GPIO_Mode
  29:src/hal.c     ****     GPIO_Init(GPIOA, &gpio_init);
 117              		.loc 1 29 0
 118 0032 6B46     		mov	r3, sp	@ tmp118,
 119 0034 0A48     		ldr	r0, .L5+4	@,
 120 0036 1946     		mov	r1, r3	@, tmp118
 121 0038 FFF7FEFF 		bl	GPIO_Init	@
  30:src/hal.c     **** 
  31:src/hal.c     ****     // Init GPIOC
  32:src/hal.c     ****     gpio_init.GPIO_Pin = GPIO_Pin_6 | GPIO_Pin_7 | \
 122              		.loc 1 32 0
 123 003c 4FF47073 		mov	r3, #960	@ tmp119,
 124 0040 0093     		str	r3, [sp]	@ tmp119, gpio_init.GPIO_Pin
  33:src/hal.c     ****                          GPIO_Pin_8 | GPIO_Pin_9;
  34:src/hal.c     ****     GPIO_Init(GPIOC, &gpio_init);
 125              		.loc 1 34 0
 126 0042 6B46     		mov	r3, sp	@ tmp120,
 127 0044 0748     		ldr	r0, .L5+8	@,
 128 0046 1946     		mov	r1, r3	@, tmp120
 129 0048 FFF7FEFF 		bl	GPIO_Init	@
  35:src/hal.c     **** 
  36:src/hal.c     ****     setup_complete++;
 130              		.loc 1 36 0
 131 004c 034B     		ldr	r3, .L5	@ tmp121,
 132 004e 1B68     		ldr	r3, [r3]	@ setup_complete.1, setup_complete
 133 0050 5A1C     		adds	r2, r3, #1	@ setup_complete.2, setup_complete.1,
 134 0052 024B     		ldr	r3, .L5	@ tmp122,
 135 0054 1A60     		str	r2, [r3]	@ setup_complete.2, setup_complete
ARM GAS  /tmp/ccLqv4Ll.s 			page 4


 136              	.L2:
  37:src/hal.c     **** }
 137              		.loc 1 37 0
 138 0056 03B0     		add	sp, sp, #12	@,,
 139              		@ sp needed	@
 140 0058 5DF804FB 		ldr	pc, [sp], #4	@
 141              	.L6:
 142              		.align	2
 143              	.L5:
 144 005c 00000000 		.word	setup_complete.5775
 145 0060 00000240 		.word	1073872896
 146 0064 00080240 		.word	1073874944
 147              		.cfi_endproc
 148              	.LFE57:
 149              		.size	hbridge_setup, .-hbridge_setup
 150              		.align	2
 151              		.global	adc_setup
 152              		.thumb
 153              		.thumb_func
 154              		.type	adc_setup, %function
 155              	adc_setup:
 156              	.LFB58:
  38:src/hal.c     **** 
  39:src/hal.c     **** void adc_setup(){
 157              		.loc 1 39 0
 158              		.cfi_startproc
 159              		@ args = 0, pretend = 0, frame = 32
 160              		@ frame_needed = 0, uses_anonymous_args = 0
 161 0068 00B5     		push	{lr}	@
 162              	.LCFI3:
 163              		.cfi_def_cfa_offset 4
 164              		.cfi_offset 14, -4
 165 006a 89B0     		sub	sp, sp, #36	@,,
 166              	.LCFI4:
 167              		.cfi_def_cfa_offset 40
  40:src/hal.c     ****     static int setup_complete = 0;
  41:src/hal.c     ****     ADC_InitTypeDef adc_init;
  42:src/hal.c     ****     GPIO_InitTypeDef gpio_init;
  43:src/hal.c     ****     
  44:src/hal.c     ****     if(setup_complete){
 168              		.loc 1 44 0
 169 006c 244B     		ldr	r3, .L12	@ tmp115,
 170 006e 1B68     		ldr	r3, [r3]	@ setup_complete.3, setup_complete
 171 0070 002B     		cmp	r3, #0	@ setup_complete.3,
 172 0072 42D1     		bne	.L7	@,
  45:src/hal.c     ****         return;
  46:src/hal.c     ****     }
  47:src/hal.c     **** 
  48:src/hal.c     ****     // Enable clock for ADC & GPIOC
  49:src/hal.c     ****     RCC_AHBPeriphClockCmd(RCC_AHBPeriph_GPIOC, ENABLE);
 173              		.loc 1 49 0
 174 0074 0420     		movs	r0, #4	@,
 175 0076 0121     		movs	r1, #1	@,
 176 0078 FFF7FEFF 		bl	RCC_AHBPeriphClockCmd	@
  50:src/hal.c     ****     RCC_APB2PeriphClockCmd(RCC_APB2Periph_ADC1, ENABLE);
 177              		.loc 1 50 0
 178 007c 4FF40070 		mov	r0, #512	@,
ARM GAS  /tmp/ccLqv4Ll.s 			page 5


 179 0080 0121     		movs	r1, #1	@,
 180 0082 FFF7FEFF 		bl	RCC_APB2PeriphClockCmd	@
  51:src/hal.c     **** 
  52:src/hal.c     ****     // Initialize GPIOC
  53:src/hal.c     ****     GPIO_StructInit(&gpio_init);
 181              		.loc 1 53 0
 182 0086 6B46     		mov	r3, sp	@ tmp116,
 183 0088 1846     		mov	r0, r3	@, tmp116
 184 008a FFF7FEFF 		bl	GPIO_StructInit	@
  54:src/hal.c     ****     gpio_init.GPIO_Pin = GPIO_Pin_0 | GPIO_Pin_1 | GPIO_Pin_2 | \
 185              		.loc 1 54 0
 186 008e 3F23     		movs	r3, #63	@ tmp117,
 187 0090 0093     		str	r3, [sp]	@ tmp117, gpio_init.GPIO_Pin
  55:src/hal.c     ****                          GPIO_Pin_3 | GPIO_Pin_4 | GPIO_Pin_5; 
  56:src/hal.c     ****     gpio_init.GPIO_Mode = GPIO_Mode_AN;
 188              		.loc 1 56 0
 189 0092 0323     		movs	r3, #3	@ tmp118,
 190 0094 8DF80430 		strb	r3, [sp, #4]	@ tmp119, gpio_init.GPIO_Mode
  57:src/hal.c     ****     gpio_init.GPIO_Speed = GPIO_Speed_2MHz; 
 191              		.loc 1 57 0
 192 0098 0123     		movs	r3, #1	@ tmp120,
 193 009a 8DF80530 		strb	r3, [sp, #5]	@ tmp121, gpio_init.GPIO_Speed
  58:src/hal.c     ****     GPIO_Init(GPIOC, &gpio_init);
 194              		.loc 1 58 0
 195 009e 6B46     		mov	r3, sp	@ tmp122,
 196 00a0 1848     		ldr	r0, .L12+4	@,
 197 00a2 1946     		mov	r1, r3	@, tmp122
 198 00a4 FFF7FEFF 		bl	GPIO_Init	@
  59:src/hal.c     ****     
  60:src/hal.c     ****     // Initialize ADC1
  61:src/hal.c     ****     ADC_DeInit(ADC1);
 199              		.loc 1 61 0
 200 00a8 1748     		ldr	r0, .L12+8	@,
 201 00aa FFF7FEFF 		bl	ADC_DeInit	@
  62:src/hal.c     ****     ADC_StructInit(&adc_init);
 202              		.loc 1 62 0
 203 00ae 02AB     		add	r3, sp, #8	@ tmp123,,
 204 00b0 1846     		mov	r0, r3	@, tmp123
 205 00b2 FFF7FEFF 		bl	ADC_StructInit	@
  63:src/hal.c     ****     ADC_Init(ADC1, &adc_init);
 206              		.loc 1 63 0
 207 00b6 02AB     		add	r3, sp, #8	@ tmp124,,
 208 00b8 1348     		ldr	r0, .L12+8	@,
 209 00ba 1946     		mov	r1, r3	@, tmp124
 210 00bc FFF7FEFF 		bl	ADC_Init	@
  64:src/hal.c     **** 
  65:src/hal.c     ****     //ADC_GetCalibrationFactor(ADC1);
  66:src/hal.c     ****     ADC_TempSensorVrefintCmd(ENABLE);
 211              		.loc 1 66 0
 212 00c0 0120     		movs	r0, #1	@,
 213 00c2 FFF7FEFF 		bl	ADC_TempSensorVrefintCmd	@
  67:src/hal.c     ****     ADC_Cmd(ADC1, ENABLE);
 214              		.loc 1 67 0
 215 00c6 1048     		ldr	r0, .L12+8	@,
 216 00c8 0121     		movs	r1, #1	@,
 217 00ca FFF7FEFF 		bl	ADC_Cmd	@
  68:src/hal.c     ****     while(ADC_GetFlagStatus(ADC1, ADC_FLAG_RCNR));
ARM GAS  /tmp/ccLqv4Ll.s 			page 6


 218              		.loc 1 68 0
 219 00ce 00BF     		nop
 220              	.L10:
 221              		.loc 1 68 0 is_stmt 0 discriminator 1
 222 00d0 0D48     		ldr	r0, .L12+8	@,
 223 00d2 4FF48071 		mov	r1, #256	@,
 224 00d6 FFF7FEFF 		bl	ADC_GetFlagStatus	@
 225 00da 0346     		mov	r3, r0	@ tmp125,
 226 00dc 002B     		cmp	r3, #0	@ D.5840,
 227 00de F7D1     		bne	.L10	@,
  69:src/hal.c     ****     while(!ADC_GetFlagStatus(ADC1, ADC_FLAG_ADONS));
 228              		.loc 1 69 0 is_stmt 1
 229 00e0 00BF     		nop
 230              	.L11:
 231              		.loc 1 69 0 is_stmt 0 discriminator 1
 232 00e2 0948     		ldr	r0, .L12+8	@,
 233 00e4 4021     		movs	r1, #64	@,
 234 00e6 FFF7FEFF 		bl	ADC_GetFlagStatus	@
 235 00ea 0346     		mov	r3, r0	@ tmp126,
 236 00ec 002B     		cmp	r3, #0	@ D.5840,
 237 00ee F8D0     		beq	.L11	@,
  70:src/hal.c     **** 
  71:src/hal.c     ****     setup_complete++;
 238              		.loc 1 71 0 is_stmt 1
 239 00f0 034B     		ldr	r3, .L12	@ tmp127,
 240 00f2 1B68     		ldr	r3, [r3]	@ setup_complete.4, setup_complete
 241 00f4 5A1C     		adds	r2, r3, #1	@ setup_complete.5, setup_complete.4,
 242 00f6 024B     		ldr	r3, .L12	@ tmp128,
 243 00f8 1A60     		str	r2, [r3]	@ setup_complete.5, setup_complete
 244              	.L7:
  72:src/hal.c     **** }
 245              		.loc 1 72 0
 246 00fa 09B0     		add	sp, sp, #36	@,,
 247              		@ sp needed	@
 248 00fc 5DF804FB 		ldr	pc, [sp], #4	@
 249              	.L13:
 250              		.align	2
 251              	.L12:
 252 0100 04000000 		.word	setup_complete.5779
 253 0104 00080240 		.word	1073874944
 254 0108 00240140 		.word	1073816576
 255              		.cfi_endproc
 256              	.LFE58:
 257              		.size	adc_setup, .-adc_setup
 258              		.align	2
 259              		.global	adc_read
 260              		.thumb
 261              		.thumb_func
 262              		.type	adc_read, %function
 263              	adc_read:
 264              	.LFB59:
  73:src/hal.c     **** 
  74:src/hal.c     **** uint16_t adc_read(uint8_t channel){
 265              		.loc 1 74 0
 266              		.cfi_startproc
 267              		@ args = 0, pretend = 0, frame = 16
 268              		@ frame_needed = 0, uses_anonymous_args = 0
ARM GAS  /tmp/ccLqv4Ll.s 			page 7


 269 010c 00B5     		push	{lr}	@
 270              	.LCFI5:
 271              		.cfi_def_cfa_offset 4
 272              		.cfi_offset 14, -4
 273 010e 85B0     		sub	sp, sp, #20	@,,
 274              	.LCFI6:
 275              		.cfi_def_cfa_offset 24
 276 0110 0346     		mov	r3, r0	@ tmp119, channel
 277 0112 8DF80730 		strb	r3, [sp, #7]	@ tmp120, channel
  75:src/hal.c     ****   uint16_t vref;
  76:src/hal.c     ****   ADC_RegularChannelConfig(ADC1, ADC_Channel_Vrefint, 0, ADC_SampleTime_384Cycles);
 278              		.loc 1 76 0
 279 0116 1D48     		ldr	r0, .L18	@,
 280 0118 1121     		movs	r1, #17	@,
 281 011a 0022     		movs	r2, #0	@,
 282 011c 0723     		movs	r3, #7	@,
 283 011e FFF7FEFF 		bl	ADC_RegularChannelConfig	@
  77:src/hal.c     ****   ADC_SoftwareStartConv(ADC1);
 284              		.loc 1 77 0
 285 0122 1A48     		ldr	r0, .L18	@,
 286 0124 FFF7FEFF 		bl	ADC_SoftwareStartConv	@
  78:src/hal.c     ****   while(ADC_GetFlagStatus(ADC1, ADC_FLAG_EOC) == RESET);
 287              		.loc 1 78 0
 288 0128 00BF     		nop
 289              	.L15:
 290              		.loc 1 78 0 is_stmt 0 discriminator 1
 291 012a 1848     		ldr	r0, .L18	@,
 292 012c 0221     		movs	r1, #2	@,
 293 012e FFF7FEFF 		bl	ADC_GetFlagStatus	@
 294 0132 0346     		mov	r3, r0	@ tmp121,
 295 0134 002B     		cmp	r3, #0	@ D.5841,
 296 0136 F8D0     		beq	.L15	@,
  79:src/hal.c     ****   vref=ADC_GetConversionValue(ADC1);
 297              		.loc 1 79 0 is_stmt 1
 298 0138 1448     		ldr	r0, .L18	@,
 299 013a FFF7FEFF 		bl	ADC_GetConversionValue	@
 300 013e 0346     		mov	r3, r0	@ tmp122,
 301 0140 ADF80E30 		strh	r3, [sp, #14]	@ movhi	@ tmp123, vref
  80:src/hal.c     **** 
  81:src/hal.c     ****   ADC_RegularChannelConfig(ADC1, channel, 0, ADC_SampleTime_384Cycles);
 302              		.loc 1 81 0
 303 0144 9DF80730 		ldrb	r3, [sp, #7]	@ zero_extendqisi2	@ tmp124, channel
 304 0148 1048     		ldr	r0, .L18	@,
 305 014a 1946     		mov	r1, r3	@, tmp124
 306 014c 0022     		movs	r2, #0	@,
 307 014e 0723     		movs	r3, #7	@,
 308 0150 FFF7FEFF 		bl	ADC_RegularChannelConfig	@
  82:src/hal.c     ****   ADC_SoftwareStartConv(ADC1);
 309              		.loc 1 82 0
 310 0154 0D48     		ldr	r0, .L18	@,
 311 0156 FFF7FEFF 		bl	ADC_SoftwareStartConv	@
  83:src/hal.c     ****   while(ADC_GetFlagStatus(ADC1, ADC_FLAG_EOC) == RESET);
 312              		.loc 1 83 0
 313 015a 00BF     		nop
 314              	.L16:
 315              		.loc 1 83 0 is_stmt 0 discriminator 1
 316 015c 0B48     		ldr	r0, .L18	@,
ARM GAS  /tmp/ccLqv4Ll.s 			page 8


 317 015e 0221     		movs	r1, #2	@,
 318 0160 FFF7FEFF 		bl	ADC_GetFlagStatus	@
 319 0164 0346     		mov	r3, r0	@ tmp125,
 320 0166 002B     		cmp	r3, #0	@ D.5841,
 321 0168 F8D0     		beq	.L16	@,
  84:src/hal.c     ****   return ADC_GetConversionValue(ADC1)*6840/vref; // magic number to get millivolts
 322              		.loc 1 84 0 is_stmt 1
 323 016a 0848     		ldr	r0, .L18	@,
 324 016c FFF7FEFF 		bl	ADC_GetConversionValue	@
 325 0170 0346     		mov	r3, r0	@ tmp126,
 326 0172 41F6B822 		movw	r2, #6840	@ tmp127,
 327 0176 02FB03F2 		mul	r2, r2, r3	@ D.5843, tmp127, D.5843
 328 017a BDF80E30 		ldrh	r3, [sp, #14]	@ D.5843, vref
 329 017e 92FBF3F3 		sdiv	r3, r2, r3	@ D.5843, D.5843, D.5843
 330 0182 9BB2     		uxth	r3, r3	@ D.5844, D.5843
  85:src/hal.c     **** 
  86:src/hal.c     **** }
 331              		.loc 1 86 0
 332 0184 1846     		mov	r0, r3	@, <retval>
 333 0186 05B0     		add	sp, sp, #20	@,,
 334              		@ sp needed	@
 335 0188 5DF804FB 		ldr	pc, [sp], #4	@
 336              	.L19:
 337              		.align	2
 338              	.L18:
 339 018c 00240140 		.word	1073816576
 340              		.cfi_endproc
 341              	.LFE59:
 342              		.size	adc_read, .-adc_read
 343              		.align	2
 344              		.global	hbridge_set
 345              		.thumb
 346              		.thumb_func
 347              		.type	hbridge_set, %function
 348              	hbridge_set:
 349              	.LFB60:
  87:src/hal.c     **** 
  88:src/hal.c     **** void hbridge_set(HBridge_Ch_TypeDef channel, uint8_t state){
 350              		.loc 1 88 0
 351              		.cfi_startproc
 352              		@ args = 0, pretend = 0, frame = 8
 353              		@ frame_needed = 0, uses_anonymous_args = 0
 354 0190 00B5     		push	{lr}	@
 355              	.LCFI7:
 356              		.cfi_def_cfa_offset 4
 357              		.cfi_offset 14, -4
 358 0192 83B0     		sub	sp, sp, #12	@,,
 359              	.LCFI8:
 360              		.cfi_def_cfa_offset 16
 361 0194 0246     		mov	r2, r0	@ tmp111, channel
 362 0196 0B46     		mov	r3, r1	@ tmp113, state
 363 0198 8DF80720 		strb	r2, [sp, #7]	@ tmp112, channel
 364 019c 8DF80630 		strb	r3, [sp, #6]	@ tmp114, state
  89:src/hal.c     ****     switch(channel){
  90:src/hal.c     ****         default:
  91:src/hal.c     ****             GPIO_WriteBit(GPIOA, GPIO_Pin_1, state);
 365              		.loc 1 91 0
ARM GAS  /tmp/ccLqv4Ll.s 			page 9


 366 01a0 9DF80630 		ldrb	r3, [sp, #6]	@ zero_extendqisi2	@ tmp115, state
 367 01a4 0748     		ldr	r0, .L21	@,
 368 01a6 0221     		movs	r1, #2	@,
 369 01a8 1A46     		mov	r2, r3	@, tmp115
 370 01aa FFF7FEFF 		bl	GPIO_WriteBit	@
  92:src/hal.c     ****             GPIO_WriteBit(GPIOA, GPIO_Pin_2, state);
 371              		.loc 1 92 0
 372 01ae 9DF80630 		ldrb	r3, [sp, #6]	@ zero_extendqisi2	@ tmp116, state
 373 01b2 0448     		ldr	r0, .L21	@,
 374 01b4 0421     		movs	r1, #4	@,
 375 01b6 1A46     		mov	r2, r3	@, tmp116
 376 01b8 FFF7FEFF 		bl	GPIO_WriteBit	@
  93:src/hal.c     ****         break;
 377              		.loc 1 93 0
 378 01bc 00BF     		nop
  94:src/hal.c     ****     }
  95:src/hal.c     **** }
 379              		.loc 1 95 0
 380 01be 03B0     		add	sp, sp, #12	@,,
 381              		@ sp needed	@
 382 01c0 5DF804FB 		ldr	pc, [sp], #4	@
 383              	.L22:
 384              		.align	2
 385              	.L21:
 386 01c4 00000240 		.word	1073872896
 387              		.cfi_endproc
 388              	.LFE60:
 389              		.size	hbridge_set, .-hbridge_set
 390              		.bss
 391              		.align	2
 392              	setup_complete.5775:
 393 0000 00000000 		.space	4
 394              		.align	2
 395              	setup_complete.5779:
 396 0004 00000000 		.space	4
 397              		.text
 398              	.Letext0:
 399              		.file 2 "/home/zbanks/gcc-arm-none-eabi/arm-none-eabi/include/stdint.h"
 400              		.file 3 "./inc/stm32l1xx.h"
 401              		.file 4 "/home/zbanks//STM32L1xx_StdPeriph_Lib_V1.2.0/Libraries/STM32L1xx_StdPeriph_Driver/inc/stm
 402              		.file 5 "/home/zbanks//STM32L1xx_StdPeriph_Lib_V1.2.0/Libraries/STM32L1xx_StdPeriph_Driver/inc/stm
 403              		.file 6 "./inc/hal.h"
 404              		.file 7 "./inc/core_cm3.h"
 405              		.section	.debug_info,"",%progbits
 406              	.Ldebug_info0:
 407 0000 27060000 		.4byte	0x627
 408 0004 0200     		.2byte	0x2
 409 0006 00000000 		.4byte	.Ldebug_abbrev0
 410 000a 04       		.byte	0x4
 411 000b 01       		.uleb128 0x1
 412 000c 72020000 		.4byte	.LASF95
 413 0010 01       		.byte	0x1
 414 0011 7E030000 		.4byte	.LASF96
 415 0015 E5010000 		.4byte	.LASF97
 416 0019 00000000 		.4byte	.Ltext0
 417 001d C8010000 		.4byte	.Letext0
 418 0021 00000000 		.4byte	.Ldebug_line0
ARM GAS  /tmp/ccLqv4Ll.s 			page 10


 419 0025 02       		.uleb128 0x2
 420 0026 01       		.byte	0x1
 421 0027 06       		.byte	0x6
 422 0028 2D010000 		.4byte	.LASF0
 423 002c 03       		.uleb128 0x3
 424 002d C0040000 		.4byte	.LASF3
 425 0031 02       		.byte	0x2
 426 0032 2A       		.byte	0x2a
 427 0033 37000000 		.4byte	0x37
 428 0037 02       		.uleb128 0x2
 429 0038 01       		.byte	0x1
 430 0039 08       		.byte	0x8
 431 003a 41020000 		.4byte	.LASF1
 432 003e 02       		.uleb128 0x2
 433 003f 02       		.byte	0x2
 434 0040 05       		.byte	0x5
 435 0041 A6000000 		.4byte	.LASF2
 436 0045 03       		.uleb128 0x3
 437 0046 63030000 		.4byte	.LASF4
 438 004a 02       		.byte	0x2
 439 004b 36       		.byte	0x36
 440 004c 50000000 		.4byte	0x50
 441 0050 02       		.uleb128 0x2
 442 0051 02       		.byte	0x2
 443 0052 07       		.byte	0x7
 444 0053 88030000 		.4byte	.LASF5
 445 0057 03       		.uleb128 0x3
 446 0058 BF030000 		.4byte	.LASF6
 447 005c 02       		.byte	0x2
 448 005d 4F       		.byte	0x4f
 449 005e 62000000 		.4byte	0x62
 450 0062 02       		.uleb128 0x2
 451 0063 04       		.byte	0x4
 452 0064 05       		.byte	0x5
 453 0065 9E010000 		.4byte	.LASF7
 454 0069 03       		.uleb128 0x3
 455 006a 33030000 		.4byte	.LASF8
 456 006e 02       		.byte	0x2
 457 006f 50       		.byte	0x50
 458 0070 74000000 		.4byte	0x74
 459 0074 02       		.uleb128 0x2
 460 0075 04       		.byte	0x4
 461 0076 07       		.byte	0x7
 462 0077 6C030000 		.4byte	.LASF9
 463 007b 02       		.uleb128 0x2
 464 007c 08       		.byte	0x8
 465 007d 05       		.byte	0x5
 466 007e 56010000 		.4byte	.LASF10
 467 0082 02       		.uleb128 0x2
 468 0083 08       		.byte	0x8
 469 0084 07       		.byte	0x7
 470 0085 1C030000 		.4byte	.LASF11
 471 0089 04       		.uleb128 0x4
 472 008a 04       		.byte	0x4
 473 008b 05       		.byte	0x5
 474 008c 696E7400 		.ascii	"int\000"
 475 0090 02       		.uleb128 0x2
ARM GAS  /tmp/ccLqv4Ll.s 			page 11


 476 0091 04       		.byte	0x4
 477 0092 07       		.byte	0x7
 478 0093 56030000 		.4byte	.LASF12
 479 0097 02       		.uleb128 0x2
 480 0098 04       		.byte	0x4
 481 0099 07       		.byte	0x7
 482 009a 79000000 		.4byte	.LASF13
 483 009e 05       		.uleb128 0x5
 484 009f 69000000 		.4byte	0x69
 485 00a3 06       		.uleb128 0x6
 486 00a4 69000000 		.4byte	0x69
 487 00a8 B3000000 		.4byte	0xb3
 488 00ac 07       		.uleb128 0x7
 489 00ad 97000000 		.4byte	0x97
 490 00b1 01       		.byte	0x1
 491 00b2 00       		.byte	0
 492 00b3 05       		.uleb128 0x5
 493 00b4 45000000 		.4byte	0x45
 494 00b8 08       		.uleb128 0x8
 495 00b9 01       		.byte	0x1
 496 00ba 03       		.byte	0x3
 497 00bb 1201     		.2byte	0x112
 498 00bd CE000000 		.4byte	0xce
 499 00c1 09       		.uleb128 0x9
 500 00c2 A7040000 		.4byte	.LASF14
 501 00c6 00       		.sleb128 0
 502 00c7 0A       		.uleb128 0xa
 503 00c8 53455400 		.ascii	"SET\000"
 504 00cc 01       		.sleb128 1
 505 00cd 00       		.byte	0
 506 00ce 08       		.uleb128 0x8
 507 00cf 01       		.byte	0x1
 508 00d0 03       		.byte	0x3
 509 00d1 1401     		.2byte	0x114
 510 00d3 E4000000 		.4byte	0xe4
 511 00d7 09       		.uleb128 0x9
 512 00d8 B7030000 		.4byte	.LASF15
 513 00dc 00       		.sleb128 0
 514 00dd 09       		.uleb128 0x9
 515 00de 64010000 		.4byte	.LASF16
 516 00e2 01       		.sleb128 1
 517 00e3 00       		.byte	0
 518 00e4 0B       		.uleb128 0xb
 519 00e5 5F040000 		.4byte	.LASF17
 520 00e9 03       		.byte	0x3
 521 00ea 1401     		.2byte	0x114
 522 00ec CE000000 		.4byte	0xce
 523 00f0 0C       		.uleb128 0xc
 524 00f1 60       		.byte	0x60
 525 00f2 03       		.byte	0x3
 526 00f3 4D01     		.2byte	0x14d
 527 00f5 60020000 		.4byte	0x260
 528 00f9 0D       		.uleb128 0xd
 529 00fa 535200   		.ascii	"SR\000"
 530 00fd 03       		.byte	0x3
 531 00fe 4F01     		.2byte	0x14f
 532 0100 9E000000 		.4byte	0x9e
ARM GAS  /tmp/ccLqv4Ll.s 			page 12


 533 0104 02       		.byte	0x2
 534 0105 23       		.byte	0x23
 535 0106 00       		.uleb128 0
 536 0107 0D       		.uleb128 0xd
 537 0108 43523100 		.ascii	"CR1\000"
 538 010c 03       		.byte	0x3
 539 010d 5001     		.2byte	0x150
 540 010f 9E000000 		.4byte	0x9e
 541 0113 02       		.byte	0x2
 542 0114 23       		.byte	0x23
 543 0115 04       		.uleb128 0x4
 544 0116 0D       		.uleb128 0xd
 545 0117 43523200 		.ascii	"CR2\000"
 546 011b 03       		.byte	0x3
 547 011c 5101     		.2byte	0x151
 548 011e 9E000000 		.4byte	0x9e
 549 0122 02       		.byte	0x2
 550 0123 23       		.byte	0x23
 551 0124 08       		.uleb128 0x8
 552 0125 0E       		.uleb128 0xe
 553 0126 6B010000 		.4byte	.LASF18
 554 012a 03       		.byte	0x3
 555 012b 5201     		.2byte	0x152
 556 012d 9E000000 		.4byte	0x9e
 557 0131 02       		.byte	0x2
 558 0132 23       		.byte	0x23
 559 0133 0C       		.uleb128 0xc
 560 0134 0E       		.uleb128 0xe
 561 0135 F2040000 		.4byte	.LASF19
 562 0139 03       		.byte	0x3
 563 013a 5301     		.2byte	0x153
 564 013c 9E000000 		.4byte	0x9e
 565 0140 02       		.byte	0x2
 566 0141 23       		.byte	0x23
 567 0142 10       		.uleb128 0x10
 568 0143 0E       		.uleb128 0xe
 569 0144 F8040000 		.4byte	.LASF20
 570 0148 03       		.byte	0x3
 571 0149 5401     		.2byte	0x154
 572 014b 9E000000 		.4byte	0x9e
 573 014f 02       		.byte	0x2
 574 0150 23       		.byte	0x23
 575 0151 14       		.uleb128 0x14
 576 0152 0E       		.uleb128 0xe
 577 0153 A1040000 		.4byte	.LASF21
 578 0157 03       		.byte	0x3
 579 0158 5501     		.2byte	0x155
 580 015a 9E000000 		.4byte	0x9e
 581 015e 02       		.byte	0x2
 582 015f 23       		.byte	0x23
 583 0160 18       		.uleb128 0x18
 584 0161 0E       		.uleb128 0xe
 585 0162 2F020000 		.4byte	.LASF22
 586 0166 03       		.byte	0x3
 587 0167 5601     		.2byte	0x156
 588 0169 9E000000 		.4byte	0x9e
 589 016d 02       		.byte	0x2
ARM GAS  /tmp/ccLqv4Ll.s 			page 13


 590 016e 23       		.byte	0x23
 591 016f 1C       		.uleb128 0x1c
 592 0170 0E       		.uleb128 0xe
 593 0171 35020000 		.4byte	.LASF23
 594 0175 03       		.byte	0x3
 595 0176 5701     		.2byte	0x157
 596 0178 9E000000 		.4byte	0x9e
 597 017c 02       		.byte	0x2
 598 017d 23       		.byte	0x23
 599 017e 20       		.uleb128 0x20
 600 017f 0E       		.uleb128 0xe
 601 0180 3B020000 		.4byte	.LASF24
 602 0184 03       		.byte	0x3
 603 0185 5801     		.2byte	0x158
 604 0187 9E000000 		.4byte	0x9e
 605 018b 02       		.byte	0x2
 606 018c 23       		.byte	0x23
 607 018d 24       		.uleb128 0x24
 608 018e 0D       		.uleb128 0xd
 609 018f 48545200 		.ascii	"HTR\000"
 610 0193 03       		.byte	0x3
 611 0194 5901     		.2byte	0x159
 612 0196 9E000000 		.4byte	0x9e
 613 019a 02       		.byte	0x2
 614 019b 23       		.byte	0x23
 615 019c 28       		.uleb128 0x28
 616 019d 0D       		.uleb128 0xd
 617 019e 4C545200 		.ascii	"LTR\000"
 618 01a2 03       		.byte	0x3
 619 01a3 5A01     		.2byte	0x15a
 620 01a5 9E000000 		.4byte	0x9e
 621 01a9 02       		.byte	0x2
 622 01aa 23       		.byte	0x23
 623 01ab 2C       		.uleb128 0x2c
 624 01ac 0E       		.uleb128 0xe
 625 01ad C8040000 		.4byte	.LASF25
 626 01b1 03       		.byte	0x3
 627 01b2 5B01     		.2byte	0x15b
 628 01b4 9E000000 		.4byte	0x9e
 629 01b8 02       		.byte	0x2
 630 01b9 23       		.byte	0x23
 631 01ba 30       		.uleb128 0x30
 632 01bb 0E       		.uleb128 0xe
 633 01bc CD040000 		.4byte	.LASF26
 634 01c0 03       		.byte	0x3
 635 01c1 5C01     		.2byte	0x15c
 636 01c3 9E000000 		.4byte	0x9e
 637 01c7 02       		.byte	0x2
 638 01c8 23       		.byte	0x23
 639 01c9 34       		.uleb128 0x34
 640 01ca 0E       		.uleb128 0xe
 641 01cb D2040000 		.4byte	.LASF27
 642 01cf 03       		.byte	0x3
 643 01d0 5D01     		.2byte	0x15d
 644 01d2 9E000000 		.4byte	0x9e
 645 01d6 02       		.byte	0x2
 646 01d7 23       		.byte	0x23
ARM GAS  /tmp/ccLqv4Ll.s 			page 14


 647 01d8 38       		.uleb128 0x38
 648 01d9 0E       		.uleb128 0xe
 649 01da D7040000 		.4byte	.LASF28
 650 01de 03       		.byte	0x3
 651 01df 5E01     		.2byte	0x15e
 652 01e1 9E000000 		.4byte	0x9e
 653 01e5 02       		.byte	0x2
 654 01e6 23       		.byte	0x23
 655 01e7 3C       		.uleb128 0x3c
 656 01e8 0E       		.uleb128 0xe
 657 01e9 DC040000 		.4byte	.LASF29
 658 01ed 03       		.byte	0x3
 659 01ee 5F01     		.2byte	0x15f
 660 01f0 9E000000 		.4byte	0x9e
 661 01f4 02       		.byte	0x2
 662 01f5 23       		.byte	0x23
 663 01f6 40       		.uleb128 0x40
 664 01f7 0E       		.uleb128 0xe
 665 01f8 A1000000 		.4byte	.LASF30
 666 01fc 03       		.byte	0x3
 667 01fd 6001     		.2byte	0x160
 668 01ff 9E000000 		.4byte	0x9e
 669 0203 02       		.byte	0x2
 670 0204 23       		.byte	0x23
 671 0205 44       		.uleb128 0x44
 672 0206 0E       		.uleb128 0xe
 673 0207 57000000 		.4byte	.LASF31
 674 020b 03       		.byte	0x3
 675 020c 6101     		.2byte	0x161
 676 020e 9E000000 		.4byte	0x9e
 677 0212 02       		.byte	0x2
 678 0213 23       		.byte	0x23
 679 0214 48       		.uleb128 0x48
 680 0215 0E       		.uleb128 0xe
 681 0216 C3010000 		.4byte	.LASF32
 682 021a 03       		.byte	0x3
 683 021b 6201     		.2byte	0x162
 684 021d 9E000000 		.4byte	0x9e
 685 0221 02       		.byte	0x2
 686 0222 23       		.byte	0x23
 687 0223 4C       		.uleb128 0x4c
 688 0224 0E       		.uleb128 0xe
 689 0225 69000000 		.4byte	.LASF33
 690 0229 03       		.byte	0x3
 691 022a 6301     		.2byte	0x163
 692 022c 9E000000 		.4byte	0x9e
 693 0230 02       		.byte	0x2
 694 0231 23       		.byte	0x23
 695 0232 50       		.uleb128 0x50
 696 0233 0E       		.uleb128 0xe
 697 0234 6E000000 		.4byte	.LASF34
 698 0238 03       		.byte	0x3
 699 0239 6401     		.2byte	0x164
 700 023b 9E000000 		.4byte	0x9e
 701 023f 02       		.byte	0x2
 702 0240 23       		.byte	0x23
 703 0241 54       		.uleb128 0x54
ARM GAS  /tmp/ccLqv4Ll.s 			page 15


 704 0242 0D       		.uleb128 0xd
 705 0243 445200   		.ascii	"DR\000"
 706 0246 03       		.byte	0x3
 707 0247 6501     		.2byte	0x165
 708 0249 9E000000 		.4byte	0x9e
 709 024d 02       		.byte	0x2
 710 024e 23       		.byte	0x23
 711 024f 58       		.uleb128 0x58
 712 0250 0E       		.uleb128 0xe
 713 0251 2B040000 		.4byte	.LASF35
 714 0255 03       		.byte	0x3
 715 0256 6601     		.2byte	0x166
 716 0258 9E000000 		.4byte	0x9e
 717 025c 02       		.byte	0x2
 718 025d 23       		.byte	0x23
 719 025e 5C       		.uleb128 0x5c
 720 025f 00       		.byte	0
 721 0260 0B       		.uleb128 0xb
 722 0261 E1040000 		.4byte	.LASF36
 723 0265 03       		.byte	0x3
 724 0266 6701     		.2byte	0x167
 725 0268 F0000000 		.4byte	0xf0
 726 026c 0C       		.uleb128 0xc
 727 026d 2C       		.byte	0x2c
 728 026e 03       		.byte	0x3
 729 026f 2102     		.2byte	0x221
 730 0271 57030000 		.4byte	0x357
 731 0275 0E       		.uleb128 0xe
 732 0276 C8010000 		.4byte	.LASF37
 733 027a 03       		.byte	0x3
 734 027b 2302     		.2byte	0x223
 735 027d 9E000000 		.4byte	0x9e
 736 0281 02       		.byte	0x2
 737 0282 23       		.byte	0x23
 738 0283 00       		.uleb128 0
 739 0284 0E       		.uleb128 0xe
 740 0285 26010000 		.4byte	.LASF38
 741 0289 03       		.byte	0x3
 742 028a 2402     		.2byte	0x224
 743 028c B3000000 		.4byte	0xb3
 744 0290 02       		.byte	0x2
 745 0291 23       		.byte	0x23
 746 0292 04       		.uleb128 0x4
 747 0293 0E       		.uleb128 0xe
 748 0294 21040000 		.4byte	.LASF39
 749 0298 03       		.byte	0x3
 750 0299 2502     		.2byte	0x225
 751 029b 45000000 		.4byte	0x45
 752 029f 02       		.byte	0x2
 753 02a0 23       		.byte	0x23
 754 02a1 06       		.uleb128 0x6
 755 02a2 0E       		.uleb128 0xe
 756 02a3 3B040000 		.4byte	.LASF40
 757 02a7 03       		.byte	0x3
 758 02a8 2602     		.2byte	0x226
 759 02aa 9E000000 		.4byte	0x9e
 760 02ae 02       		.byte	0x2
ARM GAS  /tmp/ccLqv4Ll.s 			page 16


 761 02af 23       		.byte	0x23
 762 02b0 08       		.uleb128 0x8
 763 02b1 0E       		.uleb128 0xe
 764 02b2 7F010000 		.4byte	.LASF41
 765 02b6 03       		.byte	0x3
 766 02b7 2702     		.2byte	0x227
 767 02b9 9E000000 		.4byte	0x9e
 768 02bd 02       		.byte	0x2
 769 02be 23       		.byte	0x23
 770 02bf 0C       		.uleb128 0xc
 771 02c0 0D       		.uleb128 0xd
 772 02c1 49445200 		.ascii	"IDR\000"
 773 02c5 03       		.byte	0x3
 774 02c6 2802     		.2byte	0x228
 775 02c8 B3000000 		.4byte	0xb3
 776 02cc 02       		.byte	0x2
 777 02cd 23       		.byte	0x23
 778 02ce 10       		.uleb128 0x10
 779 02cf 0E       		.uleb128 0xe
 780 02d0 DC000000 		.4byte	.LASF42
 781 02d4 03       		.byte	0x3
 782 02d5 2902     		.2byte	0x229
 783 02d7 45000000 		.4byte	0x45
 784 02db 02       		.byte	0x2
 785 02dc 23       		.byte	0x23
 786 02dd 12       		.uleb128 0x12
 787 02de 0D       		.uleb128 0xd
 788 02df 4F445200 		.ascii	"ODR\000"
 789 02e3 03       		.byte	0x3
 790 02e4 2A02     		.2byte	0x22a
 791 02e6 B3000000 		.4byte	0xb3
 792 02ea 02       		.byte	0x2
 793 02eb 23       		.byte	0x23
 794 02ec 14       		.uleb128 0x14
 795 02ed 0E       		.uleb128 0xe
 796 02ee 31040000 		.4byte	.LASF43
 797 02f2 03       		.byte	0x3
 798 02f3 2B02     		.2byte	0x22b
 799 02f5 45000000 		.4byte	0x45
 800 02f9 02       		.byte	0x2
 801 02fa 23       		.byte	0x23
 802 02fb 16       		.uleb128 0x16
 803 02fc 0E       		.uleb128 0xe
 804 02fd CE010000 		.4byte	.LASF44
 805 0301 03       		.byte	0x3
 806 0302 2C02     		.2byte	0x22c
 807 0304 B3000000 		.4byte	0xb3
 808 0308 02       		.byte	0x2
 809 0309 23       		.byte	0x23
 810 030a 18       		.uleb128 0x18
 811 030b 0E       		.uleb128 0xe
 812 030c BD010000 		.4byte	.LASF45
 813 0310 03       		.byte	0x3
 814 0311 2D02     		.2byte	0x22d
 815 0313 B3000000 		.4byte	0xb3
 816 0317 02       		.byte	0x2
 817 0318 23       		.byte	0x23
ARM GAS  /tmp/ccLqv4Ll.s 			page 17


 818 0319 1A       		.uleb128 0x1a
 819 031a 0E       		.uleb128 0xe
 820 031b FE040000 		.4byte	.LASF46
 821 031f 03       		.byte	0x3
 822 0320 2E02     		.2byte	0x22e
 823 0322 9E000000 		.4byte	0x9e
 824 0326 02       		.byte	0x2
 825 0327 23       		.byte	0x23
 826 0328 1C       		.uleb128 0x1c
 827 0329 0D       		.uleb128 0xd
 828 032a 41465200 		.ascii	"AFR\000"
 829 032e 03       		.byte	0x3
 830 032f 2F02     		.2byte	0x22f
 831 0331 57030000 		.4byte	0x357
 832 0335 02       		.byte	0x2
 833 0336 23       		.byte	0x23
 834 0337 20       		.uleb128 0x20
 835 0338 0D       		.uleb128 0xd
 836 0339 42525200 		.ascii	"BRR\000"
 837 033d 03       		.byte	0x3
 838 033e 3002     		.2byte	0x230
 839 0340 B3000000 		.4byte	0xb3
 840 0344 02       		.byte	0x2
 841 0345 23       		.byte	0x23
 842 0346 28       		.uleb128 0x28
 843 0347 0E       		.uleb128 0xe
 844 0348 FD000000 		.4byte	.LASF47
 845 034c 03       		.byte	0x3
 846 034d 3102     		.2byte	0x231
 847 034f 45000000 		.4byte	0x45
 848 0353 02       		.byte	0x2
 849 0354 23       		.byte	0x23
 850 0355 2A       		.uleb128 0x2a
 851 0356 00       		.byte	0
 852 0357 05       		.uleb128 0x5
 853 0358 A3000000 		.4byte	0xa3
 854 035c 0B       		.uleb128 0xb
 855 035d 00000000 		.4byte	.LASF48
 856 0361 03       		.byte	0x3
 857 0362 3202     		.2byte	0x232
 858 0364 6C020000 		.4byte	0x26c
 859 0368 0F       		.uleb128 0xf
 860 0369 18       		.byte	0x18
 861 036a 04       		.byte	0x4
 862 036b 36       		.byte	0x36
 863 036c D3030000 		.4byte	0x3d3
 864 0370 10       		.uleb128 0x10
 865 0371 11050000 		.4byte	.LASF49
 866 0375 04       		.byte	0x4
 867 0376 38       		.byte	0x38
 868 0377 69000000 		.4byte	0x69
 869 037b 02       		.byte	0x2
 870 037c 23       		.byte	0x23
 871 037d 00       		.uleb128 0
 872 037e 10       		.uleb128 0x10
 873 037f 90000000 		.4byte	.LASF50
 874 0383 04       		.byte	0x4
ARM GAS  /tmp/ccLqv4Ll.s 			page 18


 875 0384 3B       		.byte	0x3b
 876 0385 E4000000 		.4byte	0xe4
 877 0389 02       		.byte	0x2
 878 038a 23       		.byte	0x23
 879 038b 04       		.uleb128 0x4
 880 038c 10       		.uleb128 0x10
 881 038d C7030000 		.4byte	.LASF51
 882 0391 04       		.byte	0x4
 883 0392 3F       		.byte	0x3f
 884 0393 E4000000 		.4byte	0xe4
 885 0397 02       		.byte	0x2
 886 0398 23       		.byte	0x23
 887 0399 05       		.uleb128 0x5
 888 039a 10       		.uleb128 0x10
 889 039b 85010000 		.4byte	.LASF52
 890 039f 04       		.byte	0x4
 891 03a0 43       		.byte	0x43
 892 03a1 69000000 		.4byte	0x69
 893 03a5 02       		.byte	0x2
 894 03a6 23       		.byte	0x23
 895 03a7 08       		.uleb128 0x8
 896 03a8 10       		.uleb128 0x10
 897 03a9 0C040000 		.4byte	.LASF53
 898 03ad 04       		.byte	0x4
 899 03ae 47       		.byte	0x47
 900 03af 69000000 		.4byte	0x69
 901 03b3 02       		.byte	0x2
 902 03b4 23       		.byte	0x23
 903 03b5 0C       		.uleb128 0xc
 904 03b6 10       		.uleb128 0x10
 905 03b7 A9030000 		.4byte	.LASF54
 906 03bb 04       		.byte	0x4
 907 03bc 4B       		.byte	0x4b
 908 03bd 69000000 		.4byte	0x69
 909 03c1 02       		.byte	0x2
 910 03c2 23       		.byte	0x23
 911 03c3 10       		.uleb128 0x10
 912 03c4 10       		.uleb128 0x10
 913 03c5 C8000000 		.4byte	.LASF55
 914 03c9 04       		.byte	0x4
 915 03ca 4E       		.byte	0x4e
 916 03cb 2C000000 		.4byte	0x2c
 917 03cf 02       		.byte	0x2
 918 03d0 23       		.byte	0x23
 919 03d1 14       		.uleb128 0x14
 920 03d2 00       		.byte	0
 921 03d3 03       		.uleb128 0x3
 922 03d4 36000000 		.4byte	.LASF56
 923 03d8 04       		.byte	0x4
 924 03d9 51       		.byte	0x51
 925 03da 68030000 		.4byte	0x368
 926 03de 11       		.uleb128 0x11
 927 03df 01       		.byte	0x1
 928 03e0 05       		.byte	0x5
 929 03e1 3F       		.byte	0x3f
 930 03e2 FF030000 		.4byte	0x3ff
 931 03e6 09       		.uleb128 0x9
ARM GAS  /tmp/ccLqv4Ll.s 			page 19


 932 03e7 A7010000 		.4byte	.LASF57
 933 03eb 00       		.sleb128 0
 934 03ec 09       		.uleb128 0x9
 935 03ed 71010000 		.4byte	.LASF58
 936 03f1 01       		.sleb128 1
 937 03f2 09       		.uleb128 0x9
 938 03f3 BB000000 		.4byte	.LASF59
 939 03f7 02       		.sleb128 2
 940 03f8 09       		.uleb128 0x9
 941 03f9 07010000 		.4byte	.LASF60
 942 03fd 03       		.sleb128 3
 943 03fe 00       		.byte	0
 944 03ff 03       		.uleb128 0x3
 945 0400 46000000 		.4byte	.LASF61
 946 0404 05       		.byte	0x5
 947 0405 44       		.byte	0x44
 948 0406 DE030000 		.4byte	0x3de
 949 040a 11       		.uleb128 0x11
 950 040b 01       		.byte	0x1
 951 040c 05       		.byte	0x5
 952 040d 4F       		.byte	0x4f
 953 040e 1F040000 		.4byte	0x41f
 954 0412 09       		.uleb128 0x9
 955 0413 21020000 		.4byte	.LASF62
 956 0417 00       		.sleb128 0
 957 0418 09       		.uleb128 0x9
 958 0419 82000000 		.4byte	.LASF63
 959 041d 01       		.sleb128 1
 960 041e 00       		.byte	0
 961 041f 03       		.uleb128 0x3
 962 0420 14010000 		.4byte	.LASF64
 963 0424 05       		.byte	0x5
 964 0425 51       		.byte	0x51
 965 0426 0A040000 		.4byte	0x40a
 966 042a 11       		.uleb128 0x11
 967 042b 01       		.byte	0x1
 968 042c 05       		.byte	0x5
 969 042d 5C       		.byte	0x5c
 970 042e 4B040000 		.4byte	0x44b
 971 0432 09       		.uleb128 0x9
 972 0433 60020000 		.4byte	.LASF65
 973 0437 00       		.sleb128 0
 974 0438 09       		.uleb128 0x9
 975 0439 0C030000 		.4byte	.LASF66
 976 043d 01       		.sleb128 1
 977 043e 09       		.uleb128 0x9
 978 043f D4010000 		.4byte	.LASF67
 979 0443 02       		.sleb128 2
 980 0444 09       		.uleb128 0x9
 981 0445 4F020000 		.4byte	.LASF68
 982 0449 03       		.sleb128 3
 983 044a 00       		.byte	0
 984 044b 03       		.uleb128 0x3
 985 044c 4D040000 		.4byte	.LASF69
 986 0450 05       		.byte	0x5
 987 0451 61       		.byte	0x61
 988 0452 2A040000 		.4byte	0x42a
ARM GAS  /tmp/ccLqv4Ll.s 			page 20


 989 0456 11       		.uleb128 0x11
 990 0457 01       		.byte	0x1
 991 0458 05       		.byte	0x5
 992 0459 6C       		.byte	0x6c
 993 045a 71040000 		.4byte	0x471
 994 045e 09       		.uleb128 0x9
 995 045f 7C040000 		.4byte	.LASF70
 996 0463 00       		.sleb128 0
 997 0464 09       		.uleb128 0x9
 998 0465 5C000000 		.4byte	.LASF71
 999 0469 01       		.sleb128 1
 1000 046a 09       		.uleb128 0x9
 1001 046b 47010000 		.4byte	.LASF72
 1002 046f 02       		.sleb128 2
 1003 0470 00       		.byte	0
 1004 0471 03       		.uleb128 0x3
 1005 0472 16000000 		.4byte	.LASF73
 1006 0476 05       		.byte	0x5
 1007 0477 6F       		.byte	0x6f
 1008 0478 56040000 		.4byte	0x456
 1009 047c 0F       		.uleb128 0xf
 1010 047d 08       		.byte	0x8
 1011 047e 05       		.byte	0x5
 1012 047f 86       		.byte	0x86
 1013 0480 CB040000 		.4byte	0x4cb
 1014 0484 10       		.uleb128 0x10
 1015 0485 0D000000 		.4byte	.LASF74
 1016 0489 05       		.byte	0x5
 1017 048a 88       		.byte	0x88
 1018 048b 69000000 		.4byte	0x69
 1019 048f 02       		.byte	0x2
 1020 0490 23       		.byte	0x23
 1021 0491 00       		.uleb128 0
 1022 0492 10       		.uleb128 0x10
 1023 0493 43040000 		.4byte	.LASF75
 1024 0497 05       		.byte	0x5
 1025 0498 8B       		.byte	0x8b
 1026 0499 FF030000 		.4byte	0x3ff
 1027 049d 02       		.byte	0x2
 1028 049e 23       		.byte	0x23
 1029 049f 04       		.uleb128 0x4
 1030 04a0 10       		.uleb128 0x10
 1031 04a1 F2000000 		.4byte	.LASF76
 1032 04a5 05       		.byte	0x5
 1033 04a6 8E       		.byte	0x8e
 1034 04a7 4B040000 		.4byte	0x44b
 1035 04ab 02       		.byte	0x2
 1036 04ac 23       		.byte	0x23
 1037 04ad 05       		.uleb128 0x5
 1038 04ae 10       		.uleb128 0x10
 1039 04af B0000000 		.4byte	.LASF77
 1040 04b3 05       		.byte	0x5
 1041 04b4 91       		.byte	0x91
 1042 04b5 1F040000 		.4byte	0x41f
 1043 04b9 02       		.byte	0x2
 1044 04ba 23       		.byte	0x23
 1045 04bb 06       		.uleb128 0x6
ARM GAS  /tmp/ccLqv4Ll.s 			page 21


 1046 04bc 10       		.uleb128 0x10
 1047 04bd 02030000 		.4byte	.LASF78
 1048 04c1 05       		.byte	0x5
 1049 04c2 94       		.byte	0x94
 1050 04c3 71040000 		.4byte	0x471
 1051 04c7 02       		.byte	0x2
 1052 04c8 23       		.byte	0x23
 1053 04c9 07       		.uleb128 0x7
 1054 04ca 00       		.byte	0
 1055 04cb 03       		.uleb128 0x3
 1056 04cc 3C030000 		.4byte	.LASF79
 1057 04d0 05       		.byte	0x5
 1058 04d1 96       		.byte	0x96
 1059 04d2 7C040000 		.4byte	0x47c
 1060 04d6 11       		.uleb128 0x11
 1061 04d7 01       		.byte	0x1
 1062 04d8 06       		.byte	0x6
 1063 04d9 1D       		.byte	0x1d
 1064 04da 03050000 		.4byte	0x503
 1065 04de 09       		.uleb128 0x9
 1066 04df 13020000 		.4byte	.LASF80
 1067 04e3 00       		.sleb128 0
 1068 04e4 09       		.uleb128 0x9
 1069 04e5 05020000 		.4byte	.LASF81
 1070 04e9 01       		.sleb128 1
 1071 04ea 09       		.uleb128 0x9
 1072 04eb F0030000 		.4byte	.LASF82
 1073 04ef 02       		.sleb128 2
 1074 04f0 09       		.uleb128 0x9
 1075 04f1 FE030000 		.4byte	.LASF83
 1076 04f5 03       		.sleb128 3
 1077 04f6 09       		.uleb128 0x9
 1078 04f7 03050000 		.4byte	.LASF84
 1079 04fb 04       		.sleb128 4
 1080 04fc 09       		.uleb128 0x9
 1081 04fd 9B030000 		.4byte	.LASF85
 1082 0501 05       		.sleb128 5
 1083 0502 00       		.byte	0
 1084 0503 03       		.uleb128 0x3
 1085 0504 AD040000 		.4byte	.LASF86
 1086 0508 06       		.byte	0x6
 1087 0509 24       		.byte	0x24
 1088 050a D6040000 		.4byte	0x4d6
 1089 050e 12       		.uleb128 0x12
 1090 050f 01       		.byte	0x1
 1091 0510 DE030000 		.4byte	.LASF98
 1092 0514 01       		.byte	0x1
 1093 0515 06       		.byte	0x6
 1094 0516 01       		.byte	0x1
 1095 0517 00000000 		.4byte	.LFB56
 1096 051b 0C000000 		.4byte	.LFE56
 1097 051f 00000000 		.4byte	.LLST0
 1098 0523 01       		.byte	0x1
 1099 0524 13       		.uleb128 0x13
 1100 0525 01       		.byte	0x1
 1101 0526 39010000 		.4byte	.LASF99
 1102 052a 01       		.byte	0x1
ARM GAS  /tmp/ccLqv4Ll.s 			page 22


 1103 052b 0E       		.byte	0xe
 1104 052c 0C000000 		.4byte	.LFB57
 1105 0530 68000000 		.4byte	.LFE57
 1106 0534 20000000 		.4byte	.LLST1
 1107 0538 01       		.byte	0x1
 1108 0539 5D050000 		.4byte	0x55d
 1109 053d 14       		.uleb128 0x14
 1110 053e 27000000 		.4byte	.LASF87
 1111 0542 01       		.byte	0x1
 1112 0543 10       		.byte	0x10
 1113 0544 89000000 		.4byte	0x89
 1114 0548 05       		.byte	0x5
 1115 0549 03       		.byte	0x3
 1116 054a 00000000 		.4byte	setup_complete.5775
 1117 054e 14       		.uleb128 0x14
 1118 054f 8D040000 		.4byte	.LASF88
 1119 0553 01       		.byte	0x1
 1120 0554 11       		.byte	0x11
 1121 0555 CB040000 		.4byte	0x4cb
 1122 0559 02       		.byte	0x2
 1123 055a 91       		.byte	0x91
 1124 055b 70       		.sleb128 -16
 1125 055c 00       		.byte	0
 1126 055d 15       		.uleb128 0x15
 1127 055e 01       		.byte	0x1
 1128 055f 97040000 		.4byte	.LASF91
 1129 0563 01       		.byte	0x1
 1130 0564 27       		.byte	0x27
 1131 0565 01       		.byte	0x1
 1132 0566 68000000 		.4byte	.LFB58
 1133 056a 0C010000 		.4byte	.LFE58
 1134 056e 4C000000 		.4byte	.LLST2
 1135 0572 01       		.byte	0x1
 1136 0573 A5050000 		.4byte	0x5a5
 1137 0577 14       		.uleb128 0x14
 1138 0578 27000000 		.4byte	.LASF87
 1139 057c 01       		.byte	0x1
 1140 057d 28       		.byte	0x28
 1141 057e 89000000 		.4byte	0x89
 1142 0582 05       		.byte	0x5
 1143 0583 03       		.byte	0x3
 1144 0584 04000000 		.4byte	setup_complete.5779
 1145 0588 14       		.uleb128 0x14
 1146 0589 B4010000 		.4byte	.LASF89
 1147 058d 01       		.byte	0x1
 1148 058e 29       		.byte	0x29
 1149 058f D3030000 		.4byte	0x3d3
 1150 0593 02       		.byte	0x2
 1151 0594 91       		.byte	0x91
 1152 0595 60       		.sleb128 -32
 1153 0596 14       		.uleb128 0x14
 1154 0597 8D040000 		.4byte	.LASF88
 1155 059b 01       		.byte	0x1
 1156 059c 2A       		.byte	0x2a
 1157 059d CB040000 		.4byte	0x4cb
 1158 05a1 02       		.byte	0x2
 1159 05a2 91       		.byte	0x91
ARM GAS  /tmp/ccLqv4Ll.s 			page 23


 1160 05a3 58       		.sleb128 -40
 1161 05a4 00       		.byte	0
 1162 05a5 16       		.uleb128 0x16
 1163 05a6 01       		.byte	0x1
 1164 05a7 4D030000 		.4byte	.LASF100
 1165 05ab 01       		.byte	0x1
 1166 05ac 4A       		.byte	0x4a
 1167 05ad 01       		.byte	0x1
 1168 05ae 45000000 		.4byte	0x45
 1169 05b2 0C010000 		.4byte	.LFB59
 1170 05b6 90010000 		.4byte	.LFE59
 1171 05ba 78000000 		.4byte	.LLST3
 1172 05be 01       		.byte	0x1
 1173 05bf E0050000 		.4byte	0x5e0
 1174 05c3 17       		.uleb128 0x17
 1175 05c4 E8030000 		.4byte	.LASF93
 1176 05c8 01       		.byte	0x1
 1177 05c9 4A       		.byte	0x4a
 1178 05ca 2C000000 		.4byte	0x2c
 1179 05ce 02       		.byte	0x2
 1180 05cf 91       		.byte	0x91
 1181 05d0 6F       		.sleb128 -17
 1182 05d1 14       		.uleb128 0x14
 1183 05d2 ED040000 		.4byte	.LASF90
 1184 05d6 01       		.byte	0x1
 1185 05d7 4B       		.byte	0x4b
 1186 05d8 45000000 		.4byte	0x45
 1187 05dc 02       		.byte	0x2
 1188 05dd 91       		.byte	0x91
 1189 05de 76       		.sleb128 -10
 1190 05df 00       		.byte	0
 1191 05e0 15       		.uleb128 0x15
 1192 05e1 01       		.byte	0x1
 1193 05e2 E6000000 		.4byte	.LASF92
 1194 05e6 01       		.byte	0x1
 1195 05e7 58       		.byte	0x58
 1196 05e8 01       		.byte	0x1
 1197 05e9 90010000 		.4byte	.LFB60
 1198 05ed C8010000 		.4byte	.LFE60
 1199 05f1 A4000000 		.4byte	.LLST4
 1200 05f5 01       		.byte	0x1
 1201 05f6 17060000 		.4byte	0x617
 1202 05fa 17       		.uleb128 0x17
 1203 05fb E8030000 		.4byte	.LASF93
 1204 05ff 01       		.byte	0x1
 1205 0600 58       		.byte	0x58
 1206 0601 03050000 		.4byte	0x503
 1207 0605 02       		.byte	0x2
 1208 0606 91       		.byte	0x91
 1209 0607 77       		.sleb128 -9
 1210 0608 17       		.uleb128 0x17
 1211 0609 73000000 		.4byte	.LASF94
 1212 060d 01       		.byte	0x1
 1213 060e 58       		.byte	0x58
 1214 060f 2C000000 		.4byte	0x2c
 1215 0613 02       		.byte	0x2
 1216 0614 91       		.byte	0x91
ARM GAS  /tmp/ccLqv4Ll.s 			page 24


 1217 0615 76       		.sleb128 -10
 1218 0616 00       		.byte	0
 1219 0617 18       		.uleb128 0x18
 1220 0618 6F040000 		.4byte	.LASF101
 1221 061c 07       		.byte	0x7
 1222 061d 1606     		.2byte	0x616
 1223 061f 25060000 		.4byte	0x625
 1224 0623 01       		.byte	0x1
 1225 0624 01       		.byte	0x1
 1226 0625 05       		.uleb128 0x5
 1227 0626 57000000 		.4byte	0x57
 1228 062a 00       		.byte	0
 1229              		.section	.debug_abbrev,"",%progbits
 1230              	.Ldebug_abbrev0:
 1231 0000 01       		.uleb128 0x1
 1232 0001 11       		.uleb128 0x11
 1233 0002 01       		.byte	0x1
 1234 0003 25       		.uleb128 0x25
 1235 0004 0E       		.uleb128 0xe
 1236 0005 13       		.uleb128 0x13
 1237 0006 0B       		.uleb128 0xb
 1238 0007 03       		.uleb128 0x3
 1239 0008 0E       		.uleb128 0xe
 1240 0009 1B       		.uleb128 0x1b
 1241 000a 0E       		.uleb128 0xe
 1242 000b 11       		.uleb128 0x11
 1243 000c 01       		.uleb128 0x1
 1244 000d 12       		.uleb128 0x12
 1245 000e 01       		.uleb128 0x1
 1246 000f 10       		.uleb128 0x10
 1247 0010 06       		.uleb128 0x6
 1248 0011 00       		.byte	0
 1249 0012 00       		.byte	0
 1250 0013 02       		.uleb128 0x2
 1251 0014 24       		.uleb128 0x24
 1252 0015 00       		.byte	0
 1253 0016 0B       		.uleb128 0xb
 1254 0017 0B       		.uleb128 0xb
 1255 0018 3E       		.uleb128 0x3e
 1256 0019 0B       		.uleb128 0xb
 1257 001a 03       		.uleb128 0x3
 1258 001b 0E       		.uleb128 0xe
 1259 001c 00       		.byte	0
 1260 001d 00       		.byte	0
 1261 001e 03       		.uleb128 0x3
 1262 001f 16       		.uleb128 0x16
 1263 0020 00       		.byte	0
 1264 0021 03       		.uleb128 0x3
 1265 0022 0E       		.uleb128 0xe
 1266 0023 3A       		.uleb128 0x3a
 1267 0024 0B       		.uleb128 0xb
 1268 0025 3B       		.uleb128 0x3b
 1269 0026 0B       		.uleb128 0xb
 1270 0027 49       		.uleb128 0x49
 1271 0028 13       		.uleb128 0x13
 1272 0029 00       		.byte	0
 1273 002a 00       		.byte	0
ARM GAS  /tmp/ccLqv4Ll.s 			page 25


 1274 002b 04       		.uleb128 0x4
 1275 002c 24       		.uleb128 0x24
 1276 002d 00       		.byte	0
 1277 002e 0B       		.uleb128 0xb
 1278 002f 0B       		.uleb128 0xb
 1279 0030 3E       		.uleb128 0x3e
 1280 0031 0B       		.uleb128 0xb
 1281 0032 03       		.uleb128 0x3
 1282 0033 08       		.uleb128 0x8
 1283 0034 00       		.byte	0
 1284 0035 00       		.byte	0
 1285 0036 05       		.uleb128 0x5
 1286 0037 35       		.uleb128 0x35
 1287 0038 00       		.byte	0
 1288 0039 49       		.uleb128 0x49
 1289 003a 13       		.uleb128 0x13
 1290 003b 00       		.byte	0
 1291 003c 00       		.byte	0
 1292 003d 06       		.uleb128 0x6
 1293 003e 01       		.uleb128 0x1
 1294 003f 01       		.byte	0x1
 1295 0040 49       		.uleb128 0x49
 1296 0041 13       		.uleb128 0x13
 1297 0042 01       		.uleb128 0x1
 1298 0043 13       		.uleb128 0x13
 1299 0044 00       		.byte	0
 1300 0045 00       		.byte	0
 1301 0046 07       		.uleb128 0x7
 1302 0047 21       		.uleb128 0x21
 1303 0048 00       		.byte	0
 1304 0049 49       		.uleb128 0x49
 1305 004a 13       		.uleb128 0x13
 1306 004b 2F       		.uleb128 0x2f
 1307 004c 0B       		.uleb128 0xb
 1308 004d 00       		.byte	0
 1309 004e 00       		.byte	0
 1310 004f 08       		.uleb128 0x8
 1311 0050 04       		.uleb128 0x4
 1312 0051 01       		.byte	0x1
 1313 0052 0B       		.uleb128 0xb
 1314 0053 0B       		.uleb128 0xb
 1315 0054 3A       		.uleb128 0x3a
 1316 0055 0B       		.uleb128 0xb
 1317 0056 3B       		.uleb128 0x3b
 1318 0057 05       		.uleb128 0x5
 1319 0058 01       		.uleb128 0x1
 1320 0059 13       		.uleb128 0x13
 1321 005a 00       		.byte	0
 1322 005b 00       		.byte	0
 1323 005c 09       		.uleb128 0x9
 1324 005d 28       		.uleb128 0x28
 1325 005e 00       		.byte	0
 1326 005f 03       		.uleb128 0x3
 1327 0060 0E       		.uleb128 0xe
 1328 0061 1C       		.uleb128 0x1c
 1329 0062 0D       		.uleb128 0xd
 1330 0063 00       		.byte	0
ARM GAS  /tmp/ccLqv4Ll.s 			page 26


 1331 0064 00       		.byte	0
 1332 0065 0A       		.uleb128 0xa
 1333 0066 28       		.uleb128 0x28
 1334 0067 00       		.byte	0
 1335 0068 03       		.uleb128 0x3
 1336 0069 08       		.uleb128 0x8
 1337 006a 1C       		.uleb128 0x1c
 1338 006b 0D       		.uleb128 0xd
 1339 006c 00       		.byte	0
 1340 006d 00       		.byte	0
 1341 006e 0B       		.uleb128 0xb
 1342 006f 16       		.uleb128 0x16
 1343 0070 00       		.byte	0
 1344 0071 03       		.uleb128 0x3
 1345 0072 0E       		.uleb128 0xe
 1346 0073 3A       		.uleb128 0x3a
 1347 0074 0B       		.uleb128 0xb
 1348 0075 3B       		.uleb128 0x3b
 1349 0076 05       		.uleb128 0x5
 1350 0077 49       		.uleb128 0x49
 1351 0078 13       		.uleb128 0x13
 1352 0079 00       		.byte	0
 1353 007a 00       		.byte	0
 1354 007b 0C       		.uleb128 0xc
 1355 007c 13       		.uleb128 0x13
 1356 007d 01       		.byte	0x1
 1357 007e 0B       		.uleb128 0xb
 1358 007f 0B       		.uleb128 0xb
 1359 0080 3A       		.uleb128 0x3a
 1360 0081 0B       		.uleb128 0xb
 1361 0082 3B       		.uleb128 0x3b
 1362 0083 05       		.uleb128 0x5
 1363 0084 01       		.uleb128 0x1
 1364 0085 13       		.uleb128 0x13
 1365 0086 00       		.byte	0
 1366 0087 00       		.byte	0
 1367 0088 0D       		.uleb128 0xd
 1368 0089 0D       		.uleb128 0xd
 1369 008a 00       		.byte	0
 1370 008b 03       		.uleb128 0x3
 1371 008c 08       		.uleb128 0x8
 1372 008d 3A       		.uleb128 0x3a
 1373 008e 0B       		.uleb128 0xb
 1374 008f 3B       		.uleb128 0x3b
 1375 0090 05       		.uleb128 0x5
 1376 0091 49       		.uleb128 0x49
 1377 0092 13       		.uleb128 0x13
 1378 0093 38       		.uleb128 0x38
 1379 0094 0A       		.uleb128 0xa
 1380 0095 00       		.byte	0
 1381 0096 00       		.byte	0
 1382 0097 0E       		.uleb128 0xe
 1383 0098 0D       		.uleb128 0xd
 1384 0099 00       		.byte	0
 1385 009a 03       		.uleb128 0x3
 1386 009b 0E       		.uleb128 0xe
 1387 009c 3A       		.uleb128 0x3a
ARM GAS  /tmp/ccLqv4Ll.s 			page 27


 1388 009d 0B       		.uleb128 0xb
 1389 009e 3B       		.uleb128 0x3b
 1390 009f 05       		.uleb128 0x5
 1391 00a0 49       		.uleb128 0x49
 1392 00a1 13       		.uleb128 0x13
 1393 00a2 38       		.uleb128 0x38
 1394 00a3 0A       		.uleb128 0xa
 1395 00a4 00       		.byte	0
 1396 00a5 00       		.byte	0
 1397 00a6 0F       		.uleb128 0xf
 1398 00a7 13       		.uleb128 0x13
 1399 00a8 01       		.byte	0x1
 1400 00a9 0B       		.uleb128 0xb
 1401 00aa 0B       		.uleb128 0xb
 1402 00ab 3A       		.uleb128 0x3a
 1403 00ac 0B       		.uleb128 0xb
 1404 00ad 3B       		.uleb128 0x3b
 1405 00ae 0B       		.uleb128 0xb
 1406 00af 01       		.uleb128 0x1
 1407 00b0 13       		.uleb128 0x13
 1408 00b1 00       		.byte	0
 1409 00b2 00       		.byte	0
 1410 00b3 10       		.uleb128 0x10
 1411 00b4 0D       		.uleb128 0xd
 1412 00b5 00       		.byte	0
 1413 00b6 03       		.uleb128 0x3
 1414 00b7 0E       		.uleb128 0xe
 1415 00b8 3A       		.uleb128 0x3a
 1416 00b9 0B       		.uleb128 0xb
 1417 00ba 3B       		.uleb128 0x3b
 1418 00bb 0B       		.uleb128 0xb
 1419 00bc 49       		.uleb128 0x49
 1420 00bd 13       		.uleb128 0x13
 1421 00be 38       		.uleb128 0x38
 1422 00bf 0A       		.uleb128 0xa
 1423 00c0 00       		.byte	0
 1424 00c1 00       		.byte	0
 1425 00c2 11       		.uleb128 0x11
 1426 00c3 04       		.uleb128 0x4
 1427 00c4 01       		.byte	0x1
 1428 00c5 0B       		.uleb128 0xb
 1429 00c6 0B       		.uleb128 0xb
 1430 00c7 3A       		.uleb128 0x3a
 1431 00c8 0B       		.uleb128 0xb
 1432 00c9 3B       		.uleb128 0x3b
 1433 00ca 0B       		.uleb128 0xb
 1434 00cb 01       		.uleb128 0x1
 1435 00cc 13       		.uleb128 0x13
 1436 00cd 00       		.byte	0
 1437 00ce 00       		.byte	0
 1438 00cf 12       		.uleb128 0x12
 1439 00d0 2E       		.uleb128 0x2e
 1440 00d1 00       		.byte	0
 1441 00d2 3F       		.uleb128 0x3f
 1442 00d3 0C       		.uleb128 0xc
 1443 00d4 03       		.uleb128 0x3
 1444 00d5 0E       		.uleb128 0xe
ARM GAS  /tmp/ccLqv4Ll.s 			page 28


 1445 00d6 3A       		.uleb128 0x3a
 1446 00d7 0B       		.uleb128 0xb
 1447 00d8 3B       		.uleb128 0x3b
 1448 00d9 0B       		.uleb128 0xb
 1449 00da 27       		.uleb128 0x27
 1450 00db 0C       		.uleb128 0xc
 1451 00dc 11       		.uleb128 0x11
 1452 00dd 01       		.uleb128 0x1
 1453 00de 12       		.uleb128 0x12
 1454 00df 01       		.uleb128 0x1
 1455 00e0 40       		.uleb128 0x40
 1456 00e1 06       		.uleb128 0x6
 1457 00e2 9642     		.uleb128 0x2116
 1458 00e4 0C       		.uleb128 0xc
 1459 00e5 00       		.byte	0
 1460 00e6 00       		.byte	0
 1461 00e7 13       		.uleb128 0x13
 1462 00e8 2E       		.uleb128 0x2e
 1463 00e9 01       		.byte	0x1
 1464 00ea 3F       		.uleb128 0x3f
 1465 00eb 0C       		.uleb128 0xc
 1466 00ec 03       		.uleb128 0x3
 1467 00ed 0E       		.uleb128 0xe
 1468 00ee 3A       		.uleb128 0x3a
 1469 00ef 0B       		.uleb128 0xb
 1470 00f0 3B       		.uleb128 0x3b
 1471 00f1 0B       		.uleb128 0xb
 1472 00f2 11       		.uleb128 0x11
 1473 00f3 01       		.uleb128 0x1
 1474 00f4 12       		.uleb128 0x12
 1475 00f5 01       		.uleb128 0x1
 1476 00f6 40       		.uleb128 0x40
 1477 00f7 06       		.uleb128 0x6
 1478 00f8 9642     		.uleb128 0x2116
 1479 00fa 0C       		.uleb128 0xc
 1480 00fb 01       		.uleb128 0x1
 1481 00fc 13       		.uleb128 0x13
 1482 00fd 00       		.byte	0
 1483 00fe 00       		.byte	0
 1484 00ff 14       		.uleb128 0x14
 1485 0100 34       		.uleb128 0x34
 1486 0101 00       		.byte	0
 1487 0102 03       		.uleb128 0x3
 1488 0103 0E       		.uleb128 0xe
 1489 0104 3A       		.uleb128 0x3a
 1490 0105 0B       		.uleb128 0xb
 1491 0106 3B       		.uleb128 0x3b
 1492 0107 0B       		.uleb128 0xb
 1493 0108 49       		.uleb128 0x49
 1494 0109 13       		.uleb128 0x13
 1495 010a 02       		.uleb128 0x2
 1496 010b 0A       		.uleb128 0xa
 1497 010c 00       		.byte	0
 1498 010d 00       		.byte	0
 1499 010e 15       		.uleb128 0x15
 1500 010f 2E       		.uleb128 0x2e
 1501 0110 01       		.byte	0x1
ARM GAS  /tmp/ccLqv4Ll.s 			page 29


 1502 0111 3F       		.uleb128 0x3f
 1503 0112 0C       		.uleb128 0xc
 1504 0113 03       		.uleb128 0x3
 1505 0114 0E       		.uleb128 0xe
 1506 0115 3A       		.uleb128 0x3a
 1507 0116 0B       		.uleb128 0xb
 1508 0117 3B       		.uleb128 0x3b
 1509 0118 0B       		.uleb128 0xb
 1510 0119 27       		.uleb128 0x27
 1511 011a 0C       		.uleb128 0xc
 1512 011b 11       		.uleb128 0x11
 1513 011c 01       		.uleb128 0x1
 1514 011d 12       		.uleb128 0x12
 1515 011e 01       		.uleb128 0x1
 1516 011f 40       		.uleb128 0x40
 1517 0120 06       		.uleb128 0x6
 1518 0121 9642     		.uleb128 0x2116
 1519 0123 0C       		.uleb128 0xc
 1520 0124 01       		.uleb128 0x1
 1521 0125 13       		.uleb128 0x13
 1522 0126 00       		.byte	0
 1523 0127 00       		.byte	0
 1524 0128 16       		.uleb128 0x16
 1525 0129 2E       		.uleb128 0x2e
 1526 012a 01       		.byte	0x1
 1527 012b 3F       		.uleb128 0x3f
 1528 012c 0C       		.uleb128 0xc
 1529 012d 03       		.uleb128 0x3
 1530 012e 0E       		.uleb128 0xe
 1531 012f 3A       		.uleb128 0x3a
 1532 0130 0B       		.uleb128 0xb
 1533 0131 3B       		.uleb128 0x3b
 1534 0132 0B       		.uleb128 0xb
 1535 0133 27       		.uleb128 0x27
 1536 0134 0C       		.uleb128 0xc
 1537 0135 49       		.uleb128 0x49
 1538 0136 13       		.uleb128 0x13
 1539 0137 11       		.uleb128 0x11
 1540 0138 01       		.uleb128 0x1
 1541 0139 12       		.uleb128 0x12
 1542 013a 01       		.uleb128 0x1
 1543 013b 40       		.uleb128 0x40
 1544 013c 06       		.uleb128 0x6
 1545 013d 9642     		.uleb128 0x2116
 1546 013f 0C       		.uleb128 0xc
 1547 0140 01       		.uleb128 0x1
 1548 0141 13       		.uleb128 0x13
 1549 0142 00       		.byte	0
 1550 0143 00       		.byte	0
 1551 0144 17       		.uleb128 0x17
 1552 0145 05       		.uleb128 0x5
 1553 0146 00       		.byte	0
 1554 0147 03       		.uleb128 0x3
 1555 0148 0E       		.uleb128 0xe
 1556 0149 3A       		.uleb128 0x3a
 1557 014a 0B       		.uleb128 0xb
 1558 014b 3B       		.uleb128 0x3b
ARM GAS  /tmp/ccLqv4Ll.s 			page 30


 1559 014c 0B       		.uleb128 0xb
 1560 014d 49       		.uleb128 0x49
 1561 014e 13       		.uleb128 0x13
 1562 014f 02       		.uleb128 0x2
 1563 0150 0A       		.uleb128 0xa
 1564 0151 00       		.byte	0
 1565 0152 00       		.byte	0
 1566 0153 18       		.uleb128 0x18
 1567 0154 34       		.uleb128 0x34
 1568 0155 00       		.byte	0
 1569 0156 03       		.uleb128 0x3
 1570 0157 0E       		.uleb128 0xe
 1571 0158 3A       		.uleb128 0x3a
 1572 0159 0B       		.uleb128 0xb
 1573 015a 3B       		.uleb128 0x3b
 1574 015b 05       		.uleb128 0x5
 1575 015c 49       		.uleb128 0x49
 1576 015d 13       		.uleb128 0x13
 1577 015e 3F       		.uleb128 0x3f
 1578 015f 0C       		.uleb128 0xc
 1579 0160 3C       		.uleb128 0x3c
 1580 0161 0C       		.uleb128 0xc
 1581 0162 00       		.byte	0
 1582 0163 00       		.byte	0
 1583 0164 00       		.byte	0
 1584              		.section	.debug_loc,"",%progbits
 1585              	.Ldebug_loc0:
 1586              	.LLST0:
 1587 0000 00000000 		.4byte	.LFB56-.Ltext0
 1588 0004 02000000 		.4byte	.LCFI0-.Ltext0
 1589 0008 0200     		.2byte	0x2
 1590 000a 7D       		.byte	0x7d
 1591 000b 00       		.sleb128 0
 1592 000c 02000000 		.4byte	.LCFI0-.Ltext0
 1593 0010 0C000000 		.4byte	.LFE56-.Ltext0
 1594 0014 0200     		.2byte	0x2
 1595 0016 7D       		.byte	0x7d
 1596 0017 08       		.sleb128 8
 1597 0018 00000000 		.4byte	0
 1598 001c 00000000 		.4byte	0
 1599              	.LLST1:
 1600 0020 0C000000 		.4byte	.LFB57-.Ltext0
 1601 0024 0E000000 		.4byte	.LCFI1-.Ltext0
 1602 0028 0200     		.2byte	0x2
 1603 002a 7D       		.byte	0x7d
 1604 002b 00       		.sleb128 0
 1605 002c 0E000000 		.4byte	.LCFI1-.Ltext0
 1606 0030 10000000 		.4byte	.LCFI2-.Ltext0
 1607 0034 0200     		.2byte	0x2
 1608 0036 7D       		.byte	0x7d
 1609 0037 04       		.sleb128 4
 1610 0038 10000000 		.4byte	.LCFI2-.Ltext0
 1611 003c 68000000 		.4byte	.LFE57-.Ltext0
 1612 0040 0200     		.2byte	0x2
 1613 0042 7D       		.byte	0x7d
 1614 0043 10       		.sleb128 16
 1615 0044 00000000 		.4byte	0
ARM GAS  /tmp/ccLqv4Ll.s 			page 31


 1616 0048 00000000 		.4byte	0
 1617              	.LLST2:
 1618 004c 68000000 		.4byte	.LFB58-.Ltext0
 1619 0050 6A000000 		.4byte	.LCFI3-.Ltext0
 1620 0054 0200     		.2byte	0x2
 1621 0056 7D       		.byte	0x7d
 1622 0057 00       		.sleb128 0
 1623 0058 6A000000 		.4byte	.LCFI3-.Ltext0
 1624 005c 6C000000 		.4byte	.LCFI4-.Ltext0
 1625 0060 0200     		.2byte	0x2
 1626 0062 7D       		.byte	0x7d
 1627 0063 04       		.sleb128 4
 1628 0064 6C000000 		.4byte	.LCFI4-.Ltext0
 1629 0068 0C010000 		.4byte	.LFE58-.Ltext0
 1630 006c 0200     		.2byte	0x2
 1631 006e 7D       		.byte	0x7d
 1632 006f 28       		.sleb128 40
 1633 0070 00000000 		.4byte	0
 1634 0074 00000000 		.4byte	0
 1635              	.LLST3:
 1636 0078 0C010000 		.4byte	.LFB59-.Ltext0
 1637 007c 0E010000 		.4byte	.LCFI5-.Ltext0
 1638 0080 0200     		.2byte	0x2
 1639 0082 7D       		.byte	0x7d
 1640 0083 00       		.sleb128 0
 1641 0084 0E010000 		.4byte	.LCFI5-.Ltext0
 1642 0088 10010000 		.4byte	.LCFI6-.Ltext0
 1643 008c 0200     		.2byte	0x2
 1644 008e 7D       		.byte	0x7d
 1645 008f 04       		.sleb128 4
 1646 0090 10010000 		.4byte	.LCFI6-.Ltext0
 1647 0094 90010000 		.4byte	.LFE59-.Ltext0
 1648 0098 0200     		.2byte	0x2
 1649 009a 7D       		.byte	0x7d
 1650 009b 18       		.sleb128 24
 1651 009c 00000000 		.4byte	0
 1652 00a0 00000000 		.4byte	0
 1653              	.LLST4:
 1654 00a4 90010000 		.4byte	.LFB60-.Ltext0
 1655 00a8 92010000 		.4byte	.LCFI7-.Ltext0
 1656 00ac 0200     		.2byte	0x2
 1657 00ae 7D       		.byte	0x7d
 1658 00af 00       		.sleb128 0
 1659 00b0 92010000 		.4byte	.LCFI7-.Ltext0
 1660 00b4 94010000 		.4byte	.LCFI8-.Ltext0
 1661 00b8 0200     		.2byte	0x2
 1662 00ba 7D       		.byte	0x7d
 1663 00bb 04       		.sleb128 4
 1664 00bc 94010000 		.4byte	.LCFI8-.Ltext0
 1665 00c0 C8010000 		.4byte	.LFE60-.Ltext0
 1666 00c4 0200     		.2byte	0x2
 1667 00c6 7D       		.byte	0x7d
 1668 00c7 10       		.sleb128 16
 1669 00c8 00000000 		.4byte	0
 1670 00cc 00000000 		.4byte	0
 1671              		.section	.debug_aranges,"",%progbits
 1672 0000 1C000000 		.4byte	0x1c
ARM GAS  /tmp/ccLqv4Ll.s 			page 32


 1673 0004 0200     		.2byte	0x2
 1674 0006 00000000 		.4byte	.Ldebug_info0
 1675 000a 04       		.byte	0x4
 1676 000b 00       		.byte	0
 1677 000c 0000     		.2byte	0
 1678 000e 0000     		.2byte	0
 1679 0010 00000000 		.4byte	.Ltext0
 1680 0014 C8010000 		.4byte	.Letext0-.Ltext0
 1681 0018 00000000 		.4byte	0
 1682 001c 00000000 		.4byte	0
 1683              		.section	.debug_line,"",%progbits
 1684              	.Ldebug_line0:
 1685 0000 68010000 		.section	.debug_str,"MS",%progbits,1
 1685      02000A01 
 1685      00000201 
 1685      FB0E0D00 
 1685      01010101 
 1686              	.LASF48:
 1687 0000 4750494F 		.ascii	"GPIO_TypeDef\000"
 1687      5F547970 
 1687      65446566 
 1687      00
 1688              	.LASF74:
 1689 000d 4750494F 		.ascii	"GPIO_Pin\000"
 1689      5F50696E 
 1689      00
 1690              	.LASF73:
 1691 0016 4750494F 		.ascii	"GPIOPuPd_TypeDef\000"
 1691      50755064 
 1691      5F547970 
 1691      65446566 
 1691      00
 1692              	.LASF87:
 1693 0027 73657475 		.ascii	"setup_complete\000"
 1693      705F636F 
 1693      6D706C65 
 1693      746500
 1694              	.LASF56:
 1695 0036 4144435F 		.ascii	"ADC_InitTypeDef\000"
 1695      496E6974 
 1695      54797065 
 1695      44656600 
 1696              	.LASF61:
 1697 0046 4750494F 		.ascii	"GPIOMode_TypeDef\000"
 1697      4D6F6465 
 1697      5F547970 
 1697      65446566 
 1697      00
 1698              	.LASF31:
 1699 0057 4A445231 		.ascii	"JDR1\000"
 1699      00
 1700              	.LASF71:
 1701 005c 4750494F 		.ascii	"GPIO_PuPd_UP\000"
 1701      5F507550 
 1701      645F5550 
 1701      00
 1702              	.LASF33:
ARM GAS  /tmp/ccLqv4Ll.s 			page 33


 1703 0069 4A445233 		.ascii	"JDR3\000"
 1703      00
 1704              	.LASF34:
 1705 006e 4A445234 		.ascii	"JDR4\000"
 1705      00
 1706              	.LASF94:
 1707 0073 73746174 		.ascii	"state\000"
 1707      6500
 1708              	.LASF13:
 1709 0079 73697A65 		.ascii	"sizetype\000"
 1709      74797065 
 1709      00
 1710              	.LASF63:
 1711 0082 4750494F 		.ascii	"GPIO_OType_OD\000"
 1711      5F4F5479 
 1711      70655F4F 
 1711      4400
 1712              	.LASF50:
 1713 0090 4144435F 		.ascii	"ADC_ScanConvMode\000"
 1713      5363616E 
 1713      436F6E76 
 1713      4D6F6465 
 1713      00
 1714              	.LASF30:
 1715 00a1 4A535152 		.ascii	"JSQR\000"
 1715      00
 1716              	.LASF2:
 1717 00a6 73686F72 		.ascii	"short int\000"
 1717      7420696E 
 1717      7400
 1718              	.LASF77:
 1719 00b0 4750494F 		.ascii	"GPIO_OType\000"
 1719      5F4F5479 
 1719      706500
 1720              	.LASF59:
 1721 00bb 4750494F 		.ascii	"GPIO_Mode_AF\000"
 1721      5F4D6F64 
 1721      655F4146 
 1721      00
 1722              	.LASF55:
 1723 00c8 4144435F 		.ascii	"ADC_NbrOfConversion\000"
 1723      4E62724F 
 1723      66436F6E 
 1723      76657273 
 1723      696F6E00 
 1724              	.LASF42:
 1725 00dc 52455345 		.ascii	"RESERVED1\000"
 1725      52564544 
 1725      3100
 1726              	.LASF92:
 1727 00e6 68627269 		.ascii	"hbridge_set\000"
 1727      6467655F 
 1727      73657400 
 1728              	.LASF76:
 1729 00f2 4750494F 		.ascii	"GPIO_Speed\000"
 1729      5F537065 
 1729      656400
ARM GAS  /tmp/ccLqv4Ll.s 			page 34


 1730              	.LASF47:
 1731 00fd 52455345 		.ascii	"RESERVED3\000"
 1731      52564544 
 1731      3300
 1732              	.LASF60:
 1733 0107 4750494F 		.ascii	"GPIO_Mode_AN\000"
 1733      5F4D6F64 
 1733      655F414E 
 1733      00
 1734              	.LASF64:
 1735 0114 4750494F 		.ascii	"GPIOOType_TypeDef\000"
 1735      4F547970 
 1735      655F5479 
 1735      70654465 
 1735      6600
 1736              	.LASF38:
 1737 0126 4F545950 		.ascii	"OTYPER\000"
 1737      455200
 1738              	.LASF0:
 1739 012d 7369676E 		.ascii	"signed char\000"
 1739      65642063 
 1739      68617200 
 1740              	.LASF99:
 1741 0139 68627269 		.ascii	"hbridge_setup\000"
 1741      6467655F 
 1741      73657475 
 1741      7000
 1742              	.LASF72:
 1743 0147 4750494F 		.ascii	"GPIO_PuPd_DOWN\000"
 1743      5F507550 
 1743      645F444F 
 1743      574E00
 1744              	.LASF10:
 1745 0156 6C6F6E67 		.ascii	"long long int\000"
 1745      206C6F6E 
 1745      6720696E 
 1745      7400
 1746              	.LASF16:
 1747 0164 454E4142 		.ascii	"ENABLE\000"
 1747      4C4500
 1748              	.LASF18:
 1749 016b 534D5052 		.ascii	"SMPR1\000"
 1749      3100
 1750              	.LASF58:
 1751 0171 4750494F 		.ascii	"GPIO_Mode_OUT\000"
 1751      5F4D6F64 
 1751      655F4F55 
 1751      5400
 1752              	.LASF41:
 1753 017f 50555044 		.ascii	"PUPDR\000"
 1753      5200
 1754              	.LASF52:
 1755 0185 4144435F 		.ascii	"ADC_ExternalTrigConvEdge\000"
 1755      45787465 
 1755      726E616C 
 1755      54726967 
 1755      436F6E76 
ARM GAS  /tmp/ccLqv4Ll.s 			page 35


 1756              	.LASF7:
 1757 019e 6C6F6E67 		.ascii	"long int\000"
 1757      20696E74 
 1757      00
 1758              	.LASF57:
 1759 01a7 4750494F 		.ascii	"GPIO_Mode_IN\000"
 1759      5F4D6F64 
 1759      655F494E 
 1759      00
 1760              	.LASF89:
 1761 01b4 6164635F 		.ascii	"adc_init\000"
 1761      696E6974 
 1761      00
 1762              	.LASF45:
 1763 01bd 42535252 		.ascii	"BSRRH\000"
 1763      4800
 1764              	.LASF32:
 1765 01c3 4A445232 		.ascii	"JDR2\000"
 1765      00
 1766              	.LASF37:
 1767 01c8 4D4F4445 		.ascii	"MODER\000"
 1767      5200
 1768              	.LASF44:
 1769 01ce 42535252 		.ascii	"BSRRL\000"
 1769      4C00
 1770              	.LASF67:
 1771 01d4 4750494F 		.ascii	"GPIO_Speed_10MHz\000"
 1771      5F537065 
 1771      65645F31 
 1771      304D487A 
 1771      00
 1772              	.LASF97:
 1773 01e5 2F686F6D 		.ascii	"/home/zbanks/hackboard/firmware\000"
 1773      652F7A62 
 1773      616E6B73 
 1773      2F686163 
 1773      6B626F61 
 1774              	.LASF81:
 1775 0205 48425249 		.ascii	"HBRIDGE_CH_2B\000"
 1775      4447455F 
 1775      43485F32 
 1775      4200
 1776              	.LASF80:
 1777 0213 48425249 		.ascii	"HBRIDGE_CH_2A\000"
 1777      4447455F 
 1777      43485F32 
 1777      4100
 1778              	.LASF62:
 1779 0221 4750494F 		.ascii	"GPIO_OType_PP\000"
 1779      5F4F5479 
 1779      70655F50 
 1779      5000
 1780              	.LASF22:
 1781 022f 4A4F4652 		.ascii	"JOFR2\000"
 1781      3200
 1782              	.LASF23:
 1783 0235 4A4F4652 		.ascii	"JOFR3\000"
ARM GAS  /tmp/ccLqv4Ll.s 			page 36


 1783      3300
 1784              	.LASF24:
 1785 023b 4A4F4652 		.ascii	"JOFR4\000"
 1785      3400
 1786              	.LASF1:
 1787 0241 756E7369 		.ascii	"unsigned char\000"
 1787      676E6564 
 1787      20636861 
 1787      7200
 1788              	.LASF68:
 1789 024f 4750494F 		.ascii	"GPIO_Speed_40MHz\000"
 1789      5F537065 
 1789      65645F34 
 1789      304D487A 
 1789      00
 1790              	.LASF65:
 1791 0260 4750494F 		.ascii	"GPIO_Speed_400KHz\000"
 1791      5F537065 
 1791      65645F34 
 1791      30304B48 
 1791      7A00
 1792              	.LASF95:
 1793 0272 474E5520 		.ascii	"GNU C 4.8.3 20131129 (release) [ARM/embedded-4_8-br"
 1793      4320342E 
 1793      382E3320 
 1793      32303133 
 1793      31313239 
 1794 02a5 616E6368 		.ascii	"anch revision 205641] -mcpu=cortex-m3 -mthumb -g -g"
 1794      20726576 
 1794      6973696F 
 1794      6E203230 
 1794      35363431 
 1795 02d8 64776172 		.ascii	"dwarf-2 -O0 -std=c99 -fomit-frame-pointer\000"
 1795      662D3220 
 1795      2D4F3020 
 1795      2D737464 
 1795      3D633939 
 1796              	.LASF78:
 1797 0302 4750494F 		.ascii	"GPIO_PuPd\000"
 1797      5F507550 
 1797      6400
 1798              	.LASF66:
 1799 030c 4750494F 		.ascii	"GPIO_Speed_2MHz\000"
 1799      5F537065 
 1799      65645F32 
 1799      4D487A00 
 1800              	.LASF11:
 1801 031c 6C6F6E67 		.ascii	"long long unsigned int\000"
 1801      206C6F6E 
 1801      6720756E 
 1801      7369676E 
 1801      65642069 
 1802              	.LASF8:
 1803 0333 75696E74 		.ascii	"uint32_t\000"
 1803      33325F74 
 1803      00
 1804              	.LASF79:
ARM GAS  /tmp/ccLqv4Ll.s 			page 37


 1805 033c 4750494F 		.ascii	"GPIO_InitTypeDef\000"
 1805      5F496E69 
 1805      74547970 
 1805      65446566 
 1805      00
 1806              	.LASF100:
 1807 034d 6164635F 		.ascii	"adc_read\000"
 1807      72656164 
 1807      00
 1808              	.LASF12:
 1809 0356 756E7369 		.ascii	"unsigned int\000"
 1809      676E6564 
 1809      20696E74 
 1809      00
 1810              	.LASF4:
 1811 0363 75696E74 		.ascii	"uint16_t\000"
 1811      31365F74 
 1811      00
 1812              	.LASF9:
 1813 036c 6C6F6E67 		.ascii	"long unsigned int\000"
 1813      20756E73 
 1813      69676E65 
 1813      6420696E 
 1813      7400
 1814              	.LASF96:
 1815 037e 7372632F 		.ascii	"src/hal.c\000"
 1815      68616C2E 
 1815      6300
 1816              	.LASF5:
 1817 0388 73686F72 		.ascii	"short unsigned int\000"
 1817      7420756E 
 1817      7369676E 
 1817      65642069 
 1817      6E7400
 1818              	.LASF85:
 1819 039b 48425249 		.ascii	"HBRIDGE_CH_4B\000"
 1819      4447455F 
 1819      43485F34 
 1819      4200
 1820              	.LASF54:
 1821 03a9 4144435F 		.ascii	"ADC_DataAlign\000"
 1821      44617461 
 1821      416C6967 
 1821      6E00
 1822              	.LASF15:
 1823 03b7 44495341 		.ascii	"DISABLE\000"
 1823      424C4500 
 1824              	.LASF6:
 1825 03bf 696E7433 		.ascii	"int32_t\000"
 1825      325F7400 
 1826              	.LASF51:
 1827 03c7 4144435F 		.ascii	"ADC_ContinuousConvMode\000"
 1827      436F6E74 
 1827      696E756F 
 1827      7573436F 
 1827      6E764D6F 
 1828              	.LASF98:
ARM GAS  /tmp/ccLqv4Ll.s 			page 38


 1829 03de 68616C5F 		.ascii	"hal_setup\000"
 1829      73657475 
 1829      7000
 1830              	.LASF93:
 1831 03e8 6368616E 		.ascii	"channel\000"
 1831      6E656C00 
 1832              	.LASF82:
 1833 03f0 48425249 		.ascii	"HBRIDGE_CH_3A\000"
 1833      4447455F 
 1833      43485F33 
 1833      4100
 1834              	.LASF83:
 1835 03fe 48425249 		.ascii	"HBRIDGE_CH_3B\000"
 1835      4447455F 
 1835      43485F33 
 1835      4200
 1836              	.LASF53:
 1837 040c 4144435F 		.ascii	"ADC_ExternalTrigConv\000"
 1837      45787465 
 1837      726E616C 
 1837      54726967 
 1837      436F6E76 
 1838              	.LASF39:
 1839 0421 52455345 		.ascii	"RESERVED0\000"
 1839      52564544 
 1839      3000
 1840              	.LASF35:
 1841 042b 534D5052 		.ascii	"SMPR0\000"
 1841      3000
 1842              	.LASF43:
 1843 0431 52455345 		.ascii	"RESERVED2\000"
 1843      52564544 
 1843      3200
 1844              	.LASF40:
 1845 043b 4F535045 		.ascii	"OSPEEDR\000"
 1845      45445200 
 1846              	.LASF75:
 1847 0443 4750494F 		.ascii	"GPIO_Mode\000"
 1847      5F4D6F64 
 1847      6500
 1848              	.LASF69:
 1849 044d 4750494F 		.ascii	"GPIOSpeed_TypeDef\000"
 1849      53706565 
 1849      645F5479 
 1849      70654465 
 1849      6600
 1850              	.LASF17:
 1851 045f 46756E63 		.ascii	"FunctionalState\000"
 1851      74696F6E 
 1851      616C5374 
 1851      61746500 
 1852              	.LASF101:
 1853 046f 49544D5F 		.ascii	"ITM_RxBuffer\000"
 1853      52784275 
 1853      66666572 
 1853      00
 1854              	.LASF70:
ARM GAS  /tmp/ccLqv4Ll.s 			page 39


 1855 047c 4750494F 		.ascii	"GPIO_PuPd_NOPULL\000"
 1855      5F507550 
 1855      645F4E4F 
 1855      50554C4C 
 1855      00
 1856              	.LASF88:
 1857 048d 6770696F 		.ascii	"gpio_init\000"
 1857      5F696E69 
 1857      7400
 1858              	.LASF91:
 1859 0497 6164635F 		.ascii	"adc_setup\000"
 1859      73657475 
 1859      7000
 1860              	.LASF21:
 1861 04a1 4A4F4652 		.ascii	"JOFR1\000"
 1861      3100
 1862              	.LASF14:
 1863 04a7 52455345 		.ascii	"RESET\000"
 1863      5400
 1864              	.LASF86:
 1865 04ad 48427269 		.ascii	"HBridge_Ch_TypeDef\000"
 1865      6467655F 
 1865      43685F54 
 1865      79706544 
 1865      656600
 1866              	.LASF3:
 1867 04c0 75696E74 		.ascii	"uint8_t\000"
 1867      385F7400 
 1868              	.LASF25:
 1869 04c8 53515231 		.ascii	"SQR1\000"
 1869      00
 1870              	.LASF26:
 1871 04cd 53515232 		.ascii	"SQR2\000"
 1871      00
 1872              	.LASF27:
 1873 04d2 53515233 		.ascii	"SQR3\000"
 1873      00
 1874              	.LASF28:
 1875 04d7 53515234 		.ascii	"SQR4\000"
 1875      00
 1876              	.LASF29:
 1877 04dc 53515235 		.ascii	"SQR5\000"
 1877      00
 1878              	.LASF36:
 1879 04e1 4144435F 		.ascii	"ADC_TypeDef\000"
 1879      54797065 
 1879      44656600 
 1880              	.LASF90:
 1881 04ed 76726566 		.ascii	"vref\000"
 1881      00
 1882              	.LASF19:
 1883 04f2 534D5052 		.ascii	"SMPR2\000"
 1883      3200
 1884              	.LASF20:
 1885 04f8 534D5052 		.ascii	"SMPR3\000"
 1885      3300
 1886              	.LASF46:
ARM GAS  /tmp/ccLqv4Ll.s 			page 40


 1887 04fe 4C434B52 		.ascii	"LCKR\000"
 1887      00
 1888              	.LASF84:
 1889 0503 48425249 		.ascii	"HBRIDGE_CH_4A\000"
 1889      4447455F 
 1889      43485F34 
 1889      4100
 1890              	.LASF49:
 1891 0511 4144435F 		.ascii	"ADC_Resolution\000"
 1891      5265736F 
 1891      6C757469 
 1891      6F6E00
 1892              		.ident	"GCC: (GNU Tools for ARM Embedded Processors) 4.8.3 20131129 (release) [ARM/embedded-4_8-br
ARM GAS  /tmp/ccLqv4Ll.s 			page 41


DEFINED SYMBOLS
                            *ABS*:00000000 hal.c
     /tmp/ccLqv4Ll.s:54     .text:00000000 $t
     /tmp/ccLqv4Ll.s:59     .text:00000000 hal_setup
     /tmp/ccLqv4Ll.s:155    .text:00000068 adc_setup
     /tmp/ccLqv4Ll.s:85     .text:0000000c hbridge_setup
     /tmp/ccLqv4Ll.s:144    .text:0000005c $d
     /tmp/ccLqv4Ll.s:392    .bss:00000000 setup_complete.5775
     /tmp/ccLqv4Ll.s:150    .text:00000068 $t
     /tmp/ccLqv4Ll.s:252    .text:00000100 $d
     /tmp/ccLqv4Ll.s:395    .bss:00000004 setup_complete.5779
     /tmp/ccLqv4Ll.s:258    .text:0000010c $t
     /tmp/ccLqv4Ll.s:263    .text:0000010c adc_read
     /tmp/ccLqv4Ll.s:339    .text:0000018c $d
     /tmp/ccLqv4Ll.s:343    .text:00000190 $t
     /tmp/ccLqv4Ll.s:348    .text:00000190 hbridge_set
     /tmp/ccLqv4Ll.s:386    .text:000001c4 $d
     /tmp/ccLqv4Ll.s:391    .bss:00000000 $d
                     .debug_frame:00000010 $d

UNDEFINED SYMBOLS
RCC_AHBPeriphClockCmd
GPIO_StructInit
GPIO_Init
RCC_APB2PeriphClockCmd
ADC_DeInit
ADC_StructInit
ADC_Init
ADC_TempSensorVrefintCmd
ADC_Cmd
ADC_GetFlagStatus
ADC_RegularChannelConfig
ADC_SoftwareStartConv
ADC_GetConversionValue
GPIO_WriteBit
