ARM GAS  /tmp/ccmhp69J.s 			page 1


   1              		.syntax unified
   2              		.cpu cortex-m3
   3              		.fpu softvfp
   4              		.eabi_attribute 20, 1	@ Tag_ABI_FP_denormal
   5              		.eabi_attribute 21, 1	@ Tag_ABI_FP_exceptions
   6              		.eabi_attribute 23, 3	@ Tag_ABI_FP_number_model
   7              		.eabi_attribute 24, 1	@ Tag_ABI_align8_needed
   8              		.eabi_attribute 25, 1	@ Tag_ABI_align8_preserved
   9              		.eabi_attribute 26, 1	@ Tag_ABI_enum_size
  10              		.eabi_attribute 30, 2	@ Tag_ABI_optimization_goals
  11              		.eabi_attribute 34, 1	@ Tag_CPU_unaligned_access
  12              		.eabi_attribute 18, 4	@ Tag_ABI_PCS_wchar_t
  13              		.file	"hal.c"
  14              	@ GNU C (GNU Tools for ARM Embedded Processors) version 4.8.3 20131129 (release) [ARM/embedded-4_8-
  15              	@	compiled by GNU C version 4.3.6, GMP version 4.3.2, MPFR version 2.4.2, MPC version 0.8.1
  16              	@ GGC heuristics: --param ggc-min-expand=100 --param ggc-min-heapsize=131072
  17              	@ options passed:  -I . -I ./inc
  18              	@ -I /home/zbanks//STM32L1xx_StdPeriph_Lib_V1.2.0/Libraries/CMSIS/Device/ST/STM32F0xx/Include
  19              	@ -I /home/zbanks//STM32L1xx_StdPeriph_Lib_V1.2.0/Libraries/CMSIS/Include
  20              	@ -I /home/zbanks//STM32L1xx_StdPeriph_Lib_V1.2.0/Libraries/STM32L1xx_StdPeriph_Driver/inc
  21              	@ -I ./inc -imultilib armv7-m
  22              	@ -iprefix /home/zbanks/gcc-arm-none-eabi/bin/../lib/gcc/arm-none-eabi/4.8.3/
  23              	@ -isysroot /home/zbanks/gcc-arm-none-eabi/bin/../arm-none-eabi
  24              	@ -MD src/hal.d -MF .dep/hal.o.d -MP -MQ src/hal.o -D__USES_INITFINI__
  25              	@ -D STM32L1XX -D USE_STDPERIPH_DRIVER -D malloc_getpagesize=256
  26              	@ -D RUN_FROM_FLASH=1 src/hal.c -mcpu=cortex-m3 -mthumb
  27              	@ -auxbase-strip src/hal.o -g -gdwarf-2 -O3 -Wall -Wstrict-prototypes
  28              	@ -std=c99 -fomit-frame-pointer -fverbose-asm
  29              	@ options enabled:  -faggressive-loop-optimizations -fauto-inc-dec
  30              	@ -fbranch-count-reg -fcaller-saves -fcombine-stack-adjustments -fcommon
  31              	@ -fcompare-elim -fcprop-registers -fcrossjumping -fcse-follow-jumps
  32              	@ -fdefer-pop -fdelete-null-pointer-checks -fdevirtualize -fdwarf2-cfi-asm
  33              	@ -fearly-inlining -feliminate-unused-debug-types -fexpensive-optimizations
  34              	@ -fforward-propagate -ffunction-cse -fgcse -fgcse-after-reload -fgcse-lm
  35              	@ -fgnu-runtime -fguess-branch-probability -fhoist-adjacent-loads -fident
  36              	@ -fif-conversion -fif-conversion2 -findirect-inlining -finline
  37              	@ -finline-atomics -finline-functions -finline-functions-called-once
  38              	@ -finline-small-functions -fipa-cp -fipa-cp-clone -fipa-profile
  39              	@ -fipa-pure-const -fipa-reference -fipa-sra -fira-hoist-pressure
  40              	@ -fira-share-save-slots -fira-share-spill-slots -fivopts
  41              	@ -fkeep-static-consts -fleading-underscore -fmath-errno -fmerge-constants
  42              	@ -fmerge-debug-strings -fmove-loop-invariants -fomit-frame-pointer
  43              	@ -foptimize-register-move -foptimize-sibling-calls -foptimize-strlen
  44              	@ -fpartial-inlining -fpeephole -fpeephole2 -fpredictive-commoning
  45              	@ -fprefetch-loop-arrays -freg-struct-return -fregmove -freorder-blocks
  46              	@ -freorder-functions -frerun-cse-after-loop
  47              	@ -fsched-critical-path-heuristic -fsched-dep-count-heuristic
  48              	@ -fsched-group-heuristic -fsched-interblock -fsched-last-insn-heuristic
  49              	@ -fsched-pressure -fsched-rank-heuristic -fsched-spec
  50              	@ -fsched-spec-insn-heuristic -fsched-stalled-insns-dep -fschedule-insns
  51              	@ -fschedule-insns2 -fsection-anchors -fshow-column -fshrink-wrap
  52              	@ -fsigned-zeros -fsplit-ivs-in-unroller -fsplit-wide-types
  53              	@ -fstrict-aliasing -fstrict-overflow -fstrict-volatile-bitfields
  54              	@ -fsync-libcalls -fthread-jumps -ftoplevel-reorder -ftrapping-math
  55              	@ -ftree-bit-ccp -ftree-builtin-call-dce -ftree-ccp -ftree-ch
  56              	@ -ftree-coalesce-vars -ftree-copy-prop -ftree-copyrename -ftree-cselim
  57              	@ -ftree-dce -ftree-dominator-opts -ftree-dse -ftree-forwprop -ftree-fre
ARM GAS  /tmp/ccmhp69J.s 			page 2


  58              	@ -ftree-loop-distribute-patterns -ftree-loop-if-convert -ftree-loop-im
  59              	@ -ftree-loop-ivcanon -ftree-loop-optimize -ftree-parallelize-loops=
  60              	@ -ftree-partial-pre -ftree-phiprop -ftree-pre -ftree-pta -ftree-reassoc
  61              	@ -ftree-scev-cprop -ftree-sink -ftree-slp-vectorize -ftree-slsr -ftree-sra
  62              	@ -ftree-switch-conversion -ftree-tail-merge -ftree-ter
  63              	@ -ftree-vect-loop-version -ftree-vectorize -ftree-vrp -funit-at-a-time
  64              	@ -funswitch-loops -fvar-tracking -fvar-tracking-assignments
  65              	@ -fvect-cost-model -fverbose-asm -fzero-initialized-in-bss
  66              	@ -mfix-cortex-m3-ldrd -mlittle-endian -mpic-data-is-text-relative
  67              	@ -msched-prolog -mthumb -munaligned-access -mvectorize-with-neon-quad
  68              	
  69              		.text
  70              	.Ltext0:
  71              		.cfi_sections	.debug_frame
  72              		.align	2
  73              		.global	adc_setup
  74              		.thumb
  75              		.thumb_func
  76              		.type	adc_setup, %function
  77              	adc_setup:
  78              	.LFB57:
  79              		.file 1 "src/hal.c"
   1:src/hal.c     **** #include "hal.h"
   2:src/hal.c     **** #include "stm32l1xx_adc.h"
   3:src/hal.c     **** #include "stm32l1xx_gpio.h"
   4:src/hal.c     **** #include "stm32l1xx_rcc.h"
   5:src/hal.c     **** 
   6:src/hal.c     **** void hal_setup(){
   7:src/hal.c     ****     adc_setup();
   8:src/hal.c     ****     //buck_setup();
   9:src/hal.c     ****     //usb_setup();
  10:src/hal.c     ****     //pwm_setup();
  11:src/hal.c     **** }
  12:src/hal.c     **** 
  13:src/hal.c     **** void adc_setup(){
  80              		.loc 1 13 0
  81              		.cfi_startproc
  82              		@ args = 0, pretend = 0, frame = 32
  83              		@ frame_needed = 0, uses_anonymous_args = 0
  84 0000 30B5     		push	{r4, r5, lr}	@
  85              	.LCFI0:
  86              		.cfi_def_cfa_offset 12
  87              		.cfi_offset 4, -12
  88              		.cfi_offset 5, -8
  89              		.cfi_offset 14, -4
  14:src/hal.c     ****     static int setup_complete = 0;
  15:src/hal.c     ****     ADC_InitTypeDef adc_init;
  16:src/hal.c     ****     GPIO_InitTypeDef gpio_init;
  17:src/hal.c     ****     
  18:src/hal.c     ****     if(setup_complete){
  90              		.loc 1 18 0
  91 0002 204C     		ldr	r4, .L10	@ tmp134,
  13:src/hal.c     **** void adc_setup(){
  92              		.loc 1 13 0
  93 0004 89B0     		sub	sp, sp, #36	@,,
  94              	.LCFI1:
  95              		.cfi_def_cfa_offset 48
ARM GAS  /tmp/ccmhp69J.s 			page 3


  96              		.loc 1 18 0
  97 0006 2368     		ldr	r3, [r4]	@ setup_complete, setup_complete
  98 0008 0BB1     		cbz	r3, .L9	@ setup_complete,
  19:src/hal.c     ****         return;
  20:src/hal.c     ****     }
  21:src/hal.c     **** 
  22:src/hal.c     ****     // Enable clock for ADC & GPIOC
  23:src/hal.c     ****     RCC_AHBPeriphClockCmd(RCC_AHBPeriph_GPIOC, ENABLE);
  24:src/hal.c     ****     RCC_APB2PeriphClockCmd(RCC_APB2Periph_ADC1, ENABLE);
  25:src/hal.c     **** 
  26:src/hal.c     ****     // Initialize GPIOC
  27:src/hal.c     ****     GPIO_StructInit(&gpio_init);
  28:src/hal.c     ****     gpio_init.GPIO_Pin = GPIO_Pin_0 | GPIO_Pin_1 | GPIO_Pin_2 | \
  29:src/hal.c     ****                          GPIO_Pin_3 | GPIO_Pin_4 | GPIO_Pin_5; 
  30:src/hal.c     ****     gpio_init.GPIO_Mode = GPIO_Mode_AN;
  31:src/hal.c     ****     gpio_init.GPIO_Speed = GPIO_Speed_2MHz; 
  32:src/hal.c     ****     GPIO_Init(GPIOC, &gpio_init);
  33:src/hal.c     ****     
  34:src/hal.c     ****     // Initialize ADC1
  35:src/hal.c     ****     ADC_DeInit(ADC1);
  36:src/hal.c     ****     ADC_StructInit(&adc_init);
  37:src/hal.c     ****     ADC_Init(ADC1, &adc_init);
  38:src/hal.c     **** 
  39:src/hal.c     ****     //ADC_GetCalibrationFactor(ADC1);
  40:src/hal.c     ****     ADC_TempSensorVrefintCmd(ENABLE);
  41:src/hal.c     ****     ADC_Cmd(ADC1, ENABLE);
  42:src/hal.c     ****     while(ADC_GetFlagStatus(ADC1, ADC_FLAG_RCNR));
  43:src/hal.c     ****     while(!ADC_GetFlagStatus(ADC1, ADC_FLAG_ADONS));
  44:src/hal.c     **** 
  45:src/hal.c     ****     setup_complete = 1;
  46:src/hal.c     **** }
  99              		.loc 1 46 0
 100 000a 09B0     		add	sp, sp, #36	@,,
 101              		@ sp needed	@
 102 000c 30BD     		pop	{r4, r5, pc}	@
 103              	.L9:
  23:src/hal.c     ****     RCC_AHBPeriphClockCmd(RCC_AHBPeriph_GPIOC, ENABLE);
 104              		.loc 1 23 0
 105 000e 0420     		movs	r0, #4	@,
 106 0010 0121     		movs	r1, #1	@,
 107 0012 FFF7FEFF 		bl	RCC_AHBPeriphClockCmd	@
 108              	.LVL0:
  24:src/hal.c     ****     RCC_APB2PeriphClockCmd(RCC_APB2Periph_ADC1, ENABLE);
 109              		.loc 1 24 0
 110 0016 0121     		movs	r1, #1	@,
 111 0018 4FF40070 		mov	r0, #512	@,
 112 001c FFF7FEFF 		bl	RCC_APB2PeriphClockCmd	@
 113              	.LVL1:
  27:src/hal.c     ****     GPIO_StructInit(&gpio_init);
 114              		.loc 1 27 0
 115 0020 6846     		mov	r0, sp	@,
 116 0022 FFF7FEFF 		bl	GPIO_StructInit	@
 117              	.LVL2:
  31:src/hal.c     ****     gpio_init.GPIO_Speed = GPIO_Speed_2MHz; 
 118              		.loc 1 31 0
 119 0026 0125     		movs	r5, #1	@ tmp119,
  28:src/hal.c     ****     gpio_init.GPIO_Pin = GPIO_Pin_0 | GPIO_Pin_1 | GPIO_Pin_2 | \
ARM GAS  /tmp/ccmhp69J.s 			page 4


 120              		.loc 1 28 0
 121 0028 3F22     		movs	r2, #63	@ tmp116,
  30:src/hal.c     ****     gpio_init.GPIO_Mode = GPIO_Mode_AN;
 122              		.loc 1 30 0
 123 002a 0323     		movs	r3, #3	@ tmp117,
  32:src/hal.c     ****     GPIO_Init(GPIOC, &gpio_init);
 124              		.loc 1 32 0
 125 002c 6946     		mov	r1, sp	@,
 126 002e 1648     		ldr	r0, .L10+4	@,
  28:src/hal.c     ****     gpio_init.GPIO_Pin = GPIO_Pin_0 | GPIO_Pin_1 | GPIO_Pin_2 | \
 127              		.loc 1 28 0
 128 0030 0092     		str	r2, [sp]	@ tmp116, gpio_init.GPIO_Pin
  30:src/hal.c     ****     gpio_init.GPIO_Mode = GPIO_Mode_AN;
 129              		.loc 1 30 0
 130 0032 8DF80430 		strb	r3, [sp, #4]	@ tmp117, gpio_init.GPIO_Mode
  31:src/hal.c     ****     gpio_init.GPIO_Speed = GPIO_Speed_2MHz; 
 131              		.loc 1 31 0
 132 0036 8DF80550 		strb	r5, [sp, #5]	@ tmp119, gpio_init.GPIO_Speed
  32:src/hal.c     ****     GPIO_Init(GPIOC, &gpio_init);
 133              		.loc 1 32 0
 134 003a FFF7FEFF 		bl	GPIO_Init	@
 135              	.LVL3:
  35:src/hal.c     ****     ADC_DeInit(ADC1);
 136              		.loc 1 35 0
 137 003e 1348     		ldr	r0, .L10+8	@,
 138 0040 FFF7FEFF 		bl	ADC_DeInit	@
 139              	.LVL4:
  36:src/hal.c     ****     ADC_StructInit(&adc_init);
 140              		.loc 1 36 0
 141 0044 02A8     		add	r0, sp, #8	@,,
 142 0046 FFF7FEFF 		bl	ADC_StructInit	@
 143              	.LVL5:
  37:src/hal.c     ****     ADC_Init(ADC1, &adc_init);
 144              		.loc 1 37 0
 145 004a 02A9     		add	r1, sp, #8	@,,
 146 004c 0F48     		ldr	r0, .L10+8	@,
 147 004e FFF7FEFF 		bl	ADC_Init	@
 148              	.LVL6:
  40:src/hal.c     ****     ADC_TempSensorVrefintCmd(ENABLE);
 149              		.loc 1 40 0
 150 0052 2846     		mov	r0, r5	@, tmp119
 151 0054 FFF7FEFF 		bl	ADC_TempSensorVrefintCmd	@
 152              	.LVL7:
  41:src/hal.c     ****     ADC_Cmd(ADC1, ENABLE);
 153              		.loc 1 41 0
 154 0058 2946     		mov	r1, r5	@, tmp119
 155 005a 0C48     		ldr	r0, .L10+8	@,
 156 005c FFF7FEFF 		bl	ADC_Cmd	@
 157              	.LVL8:
 158              	.L4:
  42:src/hal.c     ****     while(ADC_GetFlagStatus(ADC1, ADC_FLAG_RCNR));
 159              		.loc 1 42 0 discriminator 1
 160 0060 0A48     		ldr	r0, .L10+8	@,
 161 0062 4FF48071 		mov	r1, #256	@,
 162 0066 FFF7FEFF 		bl	ADC_GetFlagStatus	@
 163              	.LVL9:
 164 006a 0028     		cmp	r0, #0	@
ARM GAS  /tmp/ccmhp69J.s 			page 5


 165 006c F8D1     		bne	.L4	@
 166              	.L6:
  43:src/hal.c     ****     while(!ADC_GetFlagStatus(ADC1, ADC_FLAG_ADONS));
 167              		.loc 1 43 0 discriminator 1
 168 006e 0748     		ldr	r0, .L10+8	@,
 169 0070 4021     		movs	r1, #64	@,
 170 0072 FFF7FEFF 		bl	ADC_GetFlagStatus	@
 171              	.LVL10:
 172 0076 0028     		cmp	r0, #0	@
 173 0078 F9D0     		beq	.L6	@
  45:src/hal.c     ****     setup_complete = 1;
 174              		.loc 1 45 0
 175 007a 0123     		movs	r3, #1	@ tmp133,
 176 007c 2360     		str	r3, [r4]	@ tmp133, setup_complete
 177              		.loc 1 46 0
 178 007e 09B0     		add	sp, sp, #36	@,,
 179              		@ sp needed	@
 180 0080 30BD     		pop	{r4, r5, pc}	@
 181              	.L11:
 182 0082 00BF     		.align	2
 183              	.L10:
 184 0084 00000000 		.word	.LANCHOR0
 185 0088 00080240 		.word	1073874944
 186 008c 00240140 		.word	1073816576
 187              		.cfi_endproc
 188              	.LFE57:
 189              		.size	adc_setup, .-adc_setup
 190              		.align	2
 191              		.global	hal_setup
 192              		.thumb
 193              		.thumb_func
 194              		.type	hal_setup, %function
 195              	hal_setup:
 196              	.LFB56:
   6:src/hal.c     **** void hal_setup(){
 197              		.loc 1 6 0
 198              		.cfi_startproc
 199              		@ args = 0, pretend = 0, frame = 0
 200              		@ frame_needed = 0, uses_anonymous_args = 0
 201              		@ link register save eliminated.
   7:src/hal.c     ****     adc_setup();
 202              		.loc 1 7 0
 203 0090 FFF7FEBF 		b	adc_setup	@
 204              	.LVL11:
 205              		.cfi_endproc
 206              	.LFE56:
 207              		.size	hal_setup, .-hal_setup
 208              		.align	2
 209              		.global	adc_read
 210              		.thumb
 211              		.thumb_func
 212              		.type	adc_read, %function
 213              	adc_read:
 214              	.LFB58:
  47:src/hal.c     **** 
  48:src/hal.c     **** uint16_t adc_read(uint8_t channel){
 215              		.loc 1 48 0
ARM GAS  /tmp/ccmhp69J.s 			page 6


 216              		.cfi_startproc
 217              		@ args = 0, pretend = 0, frame = 0
 218              		@ frame_needed = 0, uses_anonymous_args = 0
 219              	.LVL12:
 220 0094 38B5     		push	{r3, r4, r5, lr}	@
 221              	.LCFI2:
 222              		.cfi_def_cfa_offset 16
 223              		.cfi_offset 3, -16
 224              		.cfi_offset 4, -12
 225              		.cfi_offset 5, -8
 226              		.cfi_offset 14, -4
  49:src/hal.c     ****   uint16_t vref;
  50:src/hal.c     ****   ADC_RegularChannelConfig(ADC1, ADC_Channel_Vrefint, 0, ADC_SampleTime_384Cycles);
 227              		.loc 1 50 0
 228 0096 1121     		movs	r1, #17	@,
  48:src/hal.c     **** uint16_t adc_read(uint8_t channel){
 229              		.loc 1 48 0
 230 0098 0546     		mov	r5, r0	@ channel, channel
 231              		.loc 1 50 0
 232 009a 0022     		movs	r2, #0	@,
 233 009c 1548     		ldr	r0, .L18	@,
 234              	.LVL13:
 235 009e 0723     		movs	r3, #7	@,
 236 00a0 FFF7FEFF 		bl	ADC_RegularChannelConfig	@
 237              	.LVL14:
  51:src/hal.c     ****   ADC_SoftwareStartConv(ADC1);
 238              		.loc 1 51 0
 239 00a4 1348     		ldr	r0, .L18	@,
 240 00a6 FFF7FEFF 		bl	ADC_SoftwareStartConv	@
 241              	.LVL15:
 242              	.L15:
  52:src/hal.c     ****   while(ADC_GetFlagStatus(ADC1, ADC_FLAG_EOC) == RESET);
 243              		.loc 1 52 0 discriminator 1
 244 00aa 1248     		ldr	r0, .L18	@,
 245 00ac 0221     		movs	r1, #2	@,
 246 00ae FFF7FEFF 		bl	ADC_GetFlagStatus	@
 247              	.LVL16:
 248 00b2 0028     		cmp	r0, #0	@
 249 00b4 F9D0     		beq	.L15	@
  53:src/hal.c     ****   vref=ADC_GetConversionValue(ADC1);
 250              		.loc 1 53 0
 251 00b6 0F48     		ldr	r0, .L18	@,
 252 00b8 FFF7FEFF 		bl	ADC_GetConversionValue	@
 253              	.LVL17:
  54:src/hal.c     **** 
  55:src/hal.c     ****   ADC_RegularChannelConfig(ADC1, channel, 0, ADC_SampleTime_384Cycles);
 254              		.loc 1 55 0
 255 00bc 2946     		mov	r1, r5	@, channel
  53:src/hal.c     ****   vref=ADC_GetConversionValue(ADC1);
 256              		.loc 1 53 0
 257 00be 0446     		mov	r4, r0	@ vref,
 258              	.LVL18:
 259              		.loc 1 55 0
 260 00c0 0022     		movs	r2, #0	@,
 261 00c2 0C48     		ldr	r0, .L18	@,
 262              	.LVL19:
 263 00c4 0723     		movs	r3, #7	@,
ARM GAS  /tmp/ccmhp69J.s 			page 7


 264 00c6 FFF7FEFF 		bl	ADC_RegularChannelConfig	@
 265              	.LVL20:
  56:src/hal.c     ****   ADC_SoftwareStartConv(ADC1);
 266              		.loc 1 56 0
 267 00ca 0A48     		ldr	r0, .L18	@,
 268 00cc FFF7FEFF 		bl	ADC_SoftwareStartConv	@
 269              	.LVL21:
 270              	.L17:
  57:src/hal.c     ****   while(ADC_GetFlagStatus(ADC1, ADC_FLAG_EOC) == RESET);
 271              		.loc 1 57 0 discriminator 1
 272 00d0 0848     		ldr	r0, .L18	@,
 273 00d2 0221     		movs	r1, #2	@,
 274 00d4 FFF7FEFF 		bl	ADC_GetFlagStatus	@
 275              	.LVL22:
 276 00d8 0028     		cmp	r0, #0	@
 277 00da F9D0     		beq	.L17	@
  58:src/hal.c     ****   return ADC_GetConversionValue(ADC1)*6840/vref; // magic number to get millivolts
 278              		.loc 1 58 0
 279 00dc 0548     		ldr	r0, .L18	@,
 280 00de FFF7FEFF 		bl	ADC_GetConversionValue	@
 281              	.LVL23:
 282 00e2 41F6B823 		movw	r3, #6840	@ tmp135,
 283 00e6 03FB00F0 		mul	r0, r3, r0	@ D.6578, tmp135,
 284 00ea 90FBF4F0 		sdiv	r0, r0, r4	@ D.6578, D.6578, vref
  59:src/hal.c     **** 
  60:src/hal.c     **** }
 285              		.loc 1 60 0
 286 00ee 80B2     		uxth	r0, r0	@, D.6578
 287 00f0 38BD     		pop	{r3, r4, r5, pc}	@
 288              	.LVL24:
 289              	.L19:
 290 00f2 00BF     		.align	2
 291              	.L18:
 292 00f4 00240140 		.word	1073816576
 293              		.cfi_endproc
 294              	.LFE58:
 295              		.size	adc_read, .-adc_read
 296              		.bss
 297              		.align	2
 298              		.set	.LANCHOR0,. + 0
 299              		.type	setup_complete.6524, %object
 300              		.size	setup_complete.6524, 4
 301              	setup_complete.6524:
 302 0000 00000000 		.space	4
 303              		.text
 304              	.Letext0:
 305              		.file 2 "/home/zbanks/gcc-arm-none-eabi/arm-none-eabi/include/stdint.h"
 306              		.file 3 "./inc/stm32l1xx.h"
 307              		.file 4 "/home/zbanks//STM32L1xx_StdPeriph_Lib_V1.2.0/Libraries/STM32L1xx_StdPeriph_Driver/inc/stm
 308              		.file 5 "/home/zbanks//STM32L1xx_StdPeriph_Lib_V1.2.0/Libraries/STM32L1xx_StdPeriph_Driver/inc/stm
 309              		.file 6 "/home/zbanks//STM32L1xx_StdPeriph_Lib_V1.2.0/Libraries/STM32L1xx_StdPeriph_Driver/inc/stm
 310              		.file 7 "./inc/core_cm3.h"