ARM GAS  /tmp/ccr1s1KF.s 			page 1


   1              		.syntax unified
   2              		.cpu cortex-m3
   3              		.fpu softvfp
   4              		.eabi_attribute 20, 1	@ Tag_ABI_FP_denormal
   5              		.eabi_attribute 21, 1	@ Tag_ABI_FP_exceptions
   6              		.eabi_attribute 23, 3	@ Tag_ABI_FP_number_model
   7              		.eabi_attribute 24, 1	@ Tag_ABI_align8_needed
   8              		.eabi_attribute 25, 1	@ Tag_ABI_align8_preserved
   9              		.eabi_attribute 26, 1	@ Tag_ABI_enum_size
  10              		.eabi_attribute 30, 2	@ Tag_ABI_optimization_goals
  11              		.eabi_attribute 34, 1	@ Tag_CPU_unaligned_access
  12              		.eabi_attribute 18, 4	@ Tag_ABI_PCS_wchar_t
  13              		.file	"main.c"
  14              	@ GNU C (GNU Tools for ARM Embedded Processors) version 4.8.3 20131129 (release) [ARM/embedded-4_8-
  15              	@	compiled by GNU C version 4.3.6, GMP version 4.3.2, MPFR version 2.4.2, MPC version 0.8.1
  16              	@ GGC heuristics: --param ggc-min-expand=100 --param ggc-min-heapsize=131072
  17              	@ options passed:  -I . -I ./inc
  18              	@ -I /home/zbanks//STM32L1xx_StdPeriph_Lib_V1.2.0/Libraries/CMSIS/Device/ST/STM32F0xx/Include
  19              	@ -I /home/zbanks//STM32L1xx_StdPeriph_Lib_V1.2.0/Libraries/CMSIS/Include
  20              	@ -I /home/zbanks//STM32L1xx_StdPeriph_Lib_V1.2.0/Libraries/STM32L1xx_StdPeriph_Driver/inc
  21              	@ -I ./inc -imultilib armv7-m
  22              	@ -iprefix /home/zbanks/gcc-arm-none-eabi/bin/../lib/gcc/arm-none-eabi/4.8.3/
  23              	@ -isysroot /home/zbanks/gcc-arm-none-eabi/bin/../arm-none-eabi
  24              	@ -MD src/main.d -MF .dep/main.o.d -MP -MQ src/main.o -D__USES_INITFINI__
  25              	@ -D STM32L1XX -D USE_STDPERIPH_DRIVER -D malloc_getpagesize=256
  26              	@ -D RUN_FROM_FLASH=1 src/main.c -mcpu=cortex-m3 -mthumb
  27              	@ -auxbase-strip src/main.o -g -gdwarf-2 -O3 -Wall -Wstrict-prototypes
  28              	@ -std=c99 -fomit-frame-pointer -fverbose-asm
  29              	@ options enabled:  -faggressive-loop-optimizations -fauto-inc-dec
  30              	@ -fbranch-count-reg -fcaller-saves -fcombine-stack-adjustments -fcommon
  31              	@ -fcompare-elim -fcprop-registers -fcrossjumping -fcse-follow-jumps
  32              	@ -fdefer-pop -fdelete-null-pointer-checks -fdevirtualize -fdwarf2-cfi-asm
  33              	@ -fearly-inlining -feliminate-unused-debug-types -fexpensive-optimizations
  34              	@ -fforward-propagate -ffunction-cse -fgcse -fgcse-after-reload -fgcse-lm
  35              	@ -fgnu-runtime -fguess-branch-probability -fhoist-adjacent-loads -fident
  36              	@ -fif-conversion -fif-conversion2 -findirect-inlining -finline
  37              	@ -finline-atomics -finline-functions -finline-functions-called-once
  38              	@ -finline-small-functions -fipa-cp -fipa-cp-clone -fipa-profile
  39              	@ -fipa-pure-const -fipa-reference -fipa-sra -fira-hoist-pressure
  40              	@ -fira-share-save-slots -fira-share-spill-slots -fivopts
  41              	@ -fkeep-static-consts -fleading-underscore -fmath-errno -fmerge-constants
  42              	@ -fmerge-debug-strings -fmove-loop-invariants -fomit-frame-pointer
  43              	@ -foptimize-register-move -foptimize-sibling-calls -foptimize-strlen
  44              	@ -fpartial-inlining -fpeephole -fpeephole2 -fpredictive-commoning
  45              	@ -fprefetch-loop-arrays -freg-struct-return -fregmove -freorder-blocks
  46              	@ -freorder-functions -frerun-cse-after-loop
  47              	@ -fsched-critical-path-heuristic -fsched-dep-count-heuristic
  48              	@ -fsched-group-heuristic -fsched-interblock -fsched-last-insn-heuristic
  49              	@ -fsched-pressure -fsched-rank-heuristic -fsched-spec
  50              	@ -fsched-spec-insn-heuristic -fsched-stalled-insns-dep -fschedule-insns
  51              	@ -fschedule-insns2 -fsection-anchors -fshow-column -fshrink-wrap
  52              	@ -fsigned-zeros -fsplit-ivs-in-unroller -fsplit-wide-types
  53              	@ -fstrict-aliasing -fstrict-overflow -fstrict-volatile-bitfields
  54              	@ -fsync-libcalls -fthread-jumps -ftoplevel-reorder -ftrapping-math
  55              	@ -ftree-bit-ccp -ftree-builtin-call-dce -ftree-ccp -ftree-ch
  56              	@ -ftree-coalesce-vars -ftree-copy-prop -ftree-copyrename -ftree-cselim
  57              	@ -ftree-dce -ftree-dominator-opts -ftree-dse -ftree-forwprop -ftree-fre
ARM GAS  /tmp/ccr1s1KF.s 			page 2


  58              	@ -ftree-loop-distribute-patterns -ftree-loop-if-convert -ftree-loop-im
  59              	@ -ftree-loop-ivcanon -ftree-loop-optimize -ftree-parallelize-loops=
  60              	@ -ftree-partial-pre -ftree-phiprop -ftree-pre -ftree-pta -ftree-reassoc
  61              	@ -ftree-scev-cprop -ftree-sink -ftree-slp-vectorize -ftree-slsr -ftree-sra
  62              	@ -ftree-switch-conversion -ftree-tail-merge -ftree-ter
  63              	@ -ftree-vect-loop-version -ftree-vectorize -ftree-vrp -funit-at-a-time
  64              	@ -funswitch-loops -fvar-tracking -fvar-tracking-assignments
  65              	@ -fvect-cost-model -fverbose-asm -fzero-initialized-in-bss
  66              	@ -mfix-cortex-m3-ldrd -mlittle-endian -mpic-data-is-text-relative
  67              	@ -msched-prolog -mthumb -munaligned-access -mvectorize-with-neon-quad
  68              	
  69              		.text
  70              	.Ltext0:
  71              		.cfi_sections	.debug_frame
  72              		.section	.text.startup,"ax",%progbits
  73              		.align	2
  74              		.global	main
  75              		.thumb
  76              		.thumb_func
  77              		.type	main, %function
  78              	main:
  79              	.LFB56:
  80              		.file 1 "src/main.c"
   1:src/main.c    **** /**
   2:src/main.c    ****   ******************************************************************************
   3:src/main.c    ****   * @file    main.c
   4:src/main.c    ****   * @author  MCD Application Team
   5:src/main.c    ****   * @version V1.0.0
   6:src/main.c    ****   * @date    29-July-2013
   7:src/main.c    ****   * @brief   Main program body
   8:src/main.c    ****   ******************************************************************************
   9:src/main.c    ****   * @attention
  10:src/main.c    ****   *
  11:src/main.c    ****   * <h2><center>&copy; COPYRIGHT 2013 STMicroelectronics</center></h2>
  12:src/main.c    ****   *
  13:src/main.c    ****   * Licensed under MCD-ST Liberty SW License Agreement V2, (the "License");
  14:src/main.c    ****   * You may not use this file except in compliance with the License.
  15:src/main.c    ****   * You may obtain a copy of the License at:
  16:src/main.c    ****   *
  17:src/main.c    ****   *        http://www.st.com/software_license_agreement_liberty_v2
  18:src/main.c    ****   *
  19:src/main.c    ****   * Unless required by applicable law or agreed to in writing, software
  20:src/main.c    ****   * distributed under the License is distributed on an "AS IS" BASIS,
  21:src/main.c    ****   * WITHOUT WARRANTIES OR CONDITIONS OF ANY KIND, either express or implied.
  22:src/main.c    ****   * See the License for the specific language governing permissions and
  23:src/main.c    ****   * limitations under the License.
  24:src/main.c    ****   *
  25:src/main.c    ****   ******************************************************************************
  26:src/main.c    ****   */
  27:src/main.c    **** 
  28:src/main.c    **** /* Includes ------------------------------------------------------------------*/
  29:src/main.c    **** #include "main.h"
  30:src/main.c    **** #include "hal.h"
  31:src/main.c    **** 
  32:src/main.c    **** /** @addtogroup STM32L100C-Discovery_Demo
  33:src/main.c    ****   * @{
  34:src/main.c    ****   */
ARM GAS  /tmp/ccr1s1KF.s 			page 3


  35:src/main.c    **** 
  36:src/main.c    **** /* Private typedef -----------------------------------------------------------*/
  37:src/main.c    **** /* Private define ------------------------------------------------------------*/
  38:src/main.c    **** /* Private macro -------------------------------------------------------------*/
  39:src/main.c    **** /* Private variables ---------------------------------------------------------*/
  40:src/main.c    **** static __IO uint32_t TimingDelay;
  41:src/main.c    **** uint8_t BlinkSpeed = 0;
  42:src/main.c    **** 
  43:src/main.c    **** /* Private function prototypes -----------------------------------------------*/
  44:src/main.c    **** /* Private functions ---------------------------------------------------------*/
  45:src/main.c    **** 
  46:src/main.c    **** /**
  47:src/main.c    ****   * @brief  Main program.
  48:src/main.c    ****   * @param  None
  49:src/main.c    ****   * @retval None
  50:src/main.c    ****   */
  51:src/main.c    **** int main(void)
  52:src/main.c    **** {
  81              		.loc 1 52 0
  82              		.cfi_startproc
  83              		@ args = 0, pretend = 0, frame = 0
  84              		@ frame_needed = 0, uses_anonymous_args = 0
  85              		@ link register save eliminated.
  86              	.L2:
  87              	.LVL0:
  88 0000 FEE7     		b	.L2	@
  89              		.cfi_endproc
  90              	.LFE56:
  91              		.size	main, .-main
  92 0002 00BF     		.text
  93              		.align	2
  94              		.global	Delay
  95              		.thumb
  96              		.thumb_func
  97              		.type	Delay, %function
  98              	Delay:
  99              	.LFB57:
  53:src/main.c    ****   RCC_ClocksTypeDef RCC_Clocks;
  54:src/main.c    ****   uint16_t temp_volt;
  55:src/main.c    **** 
  56:src/main.c    **** 
  57:src/main.c    ****   /* SysTick end of count event each 1ms */
  58:src/main.c    ****   //RCC_GetClocksFreq(&RCC_Clocks);
  59:src/main.c    ****   //SysTick_Config(RCC_Clocks.HCLK_Frequency / 1000);
  60:src/main.c    **** 
  61:src/main.c    ****   //hal_setup();
  62:src/main.c    **** 
  63:src/main.c    ****   while(1)
  64:src/main.c    ****   {
  65:src/main.c    ****       //temp_volt = adc_read(ADC_Channel_TempSensor);
  66:src/main.c    ****       /* wait for 10ms */
  67:src/main.c    ****       //Delay(10);
  68:src/main.c    ****       for(uint16_t i = 1; i; i++);
  69:src/main.c    ****       temp_volt++;
  70:src/main.c    **** 
  71:src/main.c    ****   }
  72:src/main.c    **** }
ARM GAS  /tmp/ccr1s1KF.s 			page 4


  73:src/main.c    **** 
  74:src/main.c    **** /**
  75:src/main.c    ****   * @brief  Inserts a delay time.
  76:src/main.c    ****   * @param  nTime: specifies the delay time length, in 1 ms.
  77:src/main.c    ****   * @retval None
  78:src/main.c    ****   */
  79:src/main.c    **** void Delay(__IO uint32_t nTime)
  80:src/main.c    **** {
 100              		.loc 1 80 0
 101              		.cfi_startproc
 102              		@ args = 0, pretend = 0, frame = 8
 103              		@ frame_needed = 0, uses_anonymous_args = 0
 104              		@ link register save eliminated.
 105              	.LVL1:
 106              		.loc 1 80 0
 107 0000 82B0     		sub	sp, sp, #8	@,,
 108              	.LCFI0:
 109              		.cfi_def_cfa_offset 8
 110              		.loc 1 80 0
 111 0002 0190     		str	r0, [sp, #4]	@ nTime, nTime
  81:src/main.c    ****   TimingDelay = nTime;
 112              		.loc 1 81 0
 113 0004 019B     		ldr	r3, [sp, #4]	@ nTime.2, nTime
 114 0006 034A     		ldr	r2, .L8	@ tmp114,
 115 0008 1360     		str	r3, [r2]	@ nTime.2, TimingDelay
 116              	.L6:
  82:src/main.c    **** 
  83:src/main.c    ****   while(TimingDelay != 0);
 117              		.loc 1 83 0 discriminator 1
 118 000a 1368     		ldr	r3, [r2]	@ TimingDelay.3, TimingDelay
 119 000c 002B     		cmp	r3, #0	@ TimingDelay.3
 120 000e FCD1     		bne	.L6	@
  84:src/main.c    **** }
 121              		.loc 1 84 0
 122 0010 02B0     		add	sp, sp, #8	@,,
 123              		@ sp needed	@
 124 0012 7047     		bx	lr	@
 125              	.L9:
 126              		.align	2
 127              	.L8:
 128 0014 00000000 		.word	.LANCHOR0
 129              		.cfi_endproc
 130              	.LFE57:
 131              		.size	Delay, .-Delay
 132              		.align	2
 133              		.global	TimingDelay_Decrement
 134              		.thumb
 135              		.thumb_func
 136              		.type	TimingDelay_Decrement, %function
 137              	TimingDelay_Decrement:
 138              	.LFB58:
  85:src/main.c    **** 
  86:src/main.c    **** /**
  87:src/main.c    ****   * @brief  Decrements the TimingDelay variable.
  88:src/main.c    ****   * @param  None
  89:src/main.c    ****   * @retval None
  90:src/main.c    ****   */
ARM GAS  /tmp/ccr1s1KF.s 			page 5


  91:src/main.c    **** void TimingDelay_Decrement(void)
  92:src/main.c    **** {
 139              		.loc 1 92 0
 140              		.cfi_startproc
 141              		@ args = 0, pretend = 0, frame = 0
 142              		@ frame_needed = 0, uses_anonymous_args = 0
 143              		@ link register save eliminated.
  93:src/main.c    ****   if (TimingDelay != 0x00)
 144              		.loc 1 93 0
 145 0018 034B     		ldr	r3, .L15	@ tmp113,
 146 001a 1A68     		ldr	r2, [r3]	@ TimingDelay.4, TimingDelay
 147 001c 12B1     		cbz	r2, .L10	@ TimingDelay.4,
  94:src/main.c    ****   {
  95:src/main.c    ****     TimingDelay--;
 148              		.loc 1 95 0
 149 001e 1A68     		ldr	r2, [r3]	@ TimingDelay.5, TimingDelay
 150 0020 013A     		subs	r2, r2, #1	@ TimingDelay.6, TimingDelay.5,
 151 0022 1A60     		str	r2, [r3]	@ TimingDelay.6, TimingDelay
 152              	.L10:
 153 0024 7047     		bx	lr	@
 154              	.L16:
 155 0026 00BF     		.align	2
 156              	.L15:
 157 0028 00000000 		.word	.LANCHOR0
 158              		.cfi_endproc
 159              	.LFE58:
 160              		.size	TimingDelay_Decrement, .-TimingDelay_Decrement
 161              		.global	BlinkSpeed
 162              		.bss
 163              		.align	2
 164              		.set	.LANCHOR0,. + 0
 165              		.type	TimingDelay, %object
 166              		.size	TimingDelay, 4
 167              	TimingDelay:
 168 0000 00000000 		.space	4
 169              		.type	BlinkSpeed, %object
 170              		.size	BlinkSpeed, 1
 171              	BlinkSpeed:
 172 0004 00       		.space	1
 173 0005 000000   		.text
 174              	.Letext0:
 175              		.file 2 "/home/zbanks/gcc-arm-none-eabi/arm-none-eabi/include/stdint.h"
 176              		.file 3 "/home/zbanks//STM32L1xx_StdPeriph_Lib_V1.2.0/Libraries/STM32L1xx_StdPeriph_Driver/inc/stm
 177              		.file 4 "./inc/core_cm3.h"