ARM GAS  /tmp/ccLyDO9R.s 			page 1


   1              		.syntax unified
   2              		.cpu cortex-m3
   3              		.fpu softvfp
   4              		.eabi_attribute 20, 1	@ Tag_ABI_FP_denormal
   5              		.eabi_attribute 21, 1	@ Tag_ABI_FP_exceptions
   6              		.eabi_attribute 23, 3	@ Tag_ABI_FP_number_model
   7              		.eabi_attribute 24, 1	@ Tag_ABI_align8_needed
   8              		.eabi_attribute 25, 1	@ Tag_ABI_align8_preserved
   9              		.eabi_attribute 26, 1	@ Tag_ABI_enum_size
  10              		.eabi_attribute 30, 2	@ Tag_ABI_optimization_goals
  11              		.eabi_attribute 34, 1	@ Tag_CPU_unaligned_access
  12              		.eabi_attribute 18, 4	@ Tag_ABI_PCS_wchar_t
  13              		.file	"stm32l1xx_it.c"
  14              	@ GNU C (GNU Tools for ARM Embedded Processors) version 4.8.3 20131129 (release) [ARM/embedded-4_8-
  15              	@	compiled by GNU C version 4.3.6, GMP version 4.3.2, MPFR version 2.4.2, MPC version 0.8.1
  16              	@ GGC heuristics: --param ggc-min-expand=100 --param ggc-min-heapsize=131072
  17              	@ options passed:  -I . -I ./inc
  18              	@ -I /home/zbanks//STM32L1xx_StdPeriph_Lib_V1.2.0/Libraries/CMSIS/Device/ST/STM32F0xx/Include
  19              	@ -I /home/zbanks//STM32L1xx_StdPeriph_Lib_V1.2.0/Libraries/CMSIS/Include
  20              	@ -I /home/zbanks//STM32L1xx_StdPeriph_Lib_V1.2.0/Libraries/STM32L1xx_StdPeriph_Driver/inc
  21              	@ -I ./inc -imultilib armv7-m
  22              	@ -iprefix /home/zbanks/gcc-arm-none-eabi/bin/../lib/gcc/arm-none-eabi/4.8.3/
  23              	@ -isysroot /home/zbanks/gcc-arm-none-eabi/bin/../arm-none-eabi
  24              	@ -MD src/stm32l1xx_it.d -MF .dep/stm32l1xx_it.o.d -MP
  25              	@ -MQ src/stm32l1xx_it.o -D__USES_INITFINI__ -D STM32L1XX
  26              	@ -D USE_STDPERIPH_DRIVER -D malloc_getpagesize=256 -D RUN_FROM_FLASH=1
  27              	@ src/stm32l1xx_it.c -mcpu=cortex-m3 -mthumb
  28              	@ -auxbase-strip src/stm32l1xx_it.o -g -gdwarf-2 -O3 -Wall
  29              	@ -Wstrict-prototypes -std=c99 -fomit-frame-pointer -fverbose-asm
  30              	@ options enabled:  -faggressive-loop-optimizations -fauto-inc-dec
  31              	@ -fbranch-count-reg -fcaller-saves -fcombine-stack-adjustments -fcommon
  32              	@ -fcompare-elim -fcprop-registers -fcrossjumping -fcse-follow-jumps
  33              	@ -fdefer-pop -fdelete-null-pointer-checks -fdevirtualize -fdwarf2-cfi-asm
  34              	@ -fearly-inlining -feliminate-unused-debug-types -fexpensive-optimizations
  35              	@ -fforward-propagate -ffunction-cse -fgcse -fgcse-after-reload -fgcse-lm
  36              	@ -fgnu-runtime -fguess-branch-probability -fhoist-adjacent-loads -fident
  37              	@ -fif-conversion -fif-conversion2 -findirect-inlining -finline
  38              	@ -finline-atomics -finline-functions -finline-functions-called-once
  39              	@ -finline-small-functions -fipa-cp -fipa-cp-clone -fipa-profile
  40              	@ -fipa-pure-const -fipa-reference -fipa-sra -fira-hoist-pressure
  41              	@ -fira-share-save-slots -fira-share-spill-slots -fivopts
  42              	@ -fkeep-static-consts -fleading-underscore -fmath-errno -fmerge-constants
  43              	@ -fmerge-debug-strings -fmove-loop-invariants -fomit-frame-pointer
  44              	@ -foptimize-register-move -foptimize-sibling-calls -foptimize-strlen
  45              	@ -fpartial-inlining -fpeephole -fpeephole2 -fpredictive-commoning
  46              	@ -fprefetch-loop-arrays -freg-struct-return -fregmove -freorder-blocks
  47              	@ -freorder-functions -frerun-cse-after-loop
  48              	@ -fsched-critical-path-heuristic -fsched-dep-count-heuristic
  49              	@ -fsched-group-heuristic -fsched-interblock -fsched-last-insn-heuristic
  50              	@ -fsched-pressure -fsched-rank-heuristic -fsched-spec
  51              	@ -fsched-spec-insn-heuristic -fsched-stalled-insns-dep -fschedule-insns
  52              	@ -fschedule-insns2 -fsection-anchors -fshow-column -fshrink-wrap
  53              	@ -fsigned-zeros -fsplit-ivs-in-unroller -fsplit-wide-types
  54              	@ -fstrict-aliasing -fstrict-overflow -fstrict-volatile-bitfields
  55              	@ -fsync-libcalls -fthread-jumps -ftoplevel-reorder -ftrapping-math
  56              	@ -ftree-bit-ccp -ftree-builtin-call-dce -ftree-ccp -ftree-ch
  57              	@ -ftree-coalesce-vars -ftree-copy-prop -ftree-copyrename -ftree-cselim
ARM GAS  /tmp/ccLyDO9R.s 			page 2


  58              	@ -ftree-dce -ftree-dominator-opts -ftree-dse -ftree-forwprop -ftree-fre
  59              	@ -ftree-loop-distribute-patterns -ftree-loop-if-convert -ftree-loop-im
  60              	@ -ftree-loop-ivcanon -ftree-loop-optimize -ftree-parallelize-loops=
  61              	@ -ftree-partial-pre -ftree-phiprop -ftree-pre -ftree-pta -ftree-reassoc
  62              	@ -ftree-scev-cprop -ftree-sink -ftree-slp-vectorize -ftree-slsr -ftree-sra
  63              	@ -ftree-switch-conversion -ftree-tail-merge -ftree-ter
  64              	@ -ftree-vect-loop-version -ftree-vectorize -ftree-vrp -funit-at-a-time
  65              	@ -funswitch-loops -fvar-tracking -fvar-tracking-assignments
  66              	@ -fvect-cost-model -fverbose-asm -fzero-initialized-in-bss
  67              	@ -mfix-cortex-m3-ldrd -mlittle-endian -mpic-data-is-text-relative
  68              	@ -msched-prolog -mthumb -munaligned-access -mvectorize-with-neon-quad
  69              	
  70              		.text
  71              	.Ltext0:
  72              		.cfi_sections	.debug_frame
  73              		.align	2
  74              		.global	NMI_Handler
  75              		.thumb
  76              		.thumb_func
  77              		.type	NMI_Handler, %function
  78              	NMI_Handler:
  79              	.LFB56:
  80              		.file 1 "src/stm32l1xx_it.c"
   1:src/stm32l1xx_it.c **** /**
   2:src/stm32l1xx_it.c ****   ******************************************************************************
   3:src/stm32l1xx_it.c ****   * @file    stm32l1xx_it.c
   4:src/stm32l1xx_it.c ****   * @author  MCD Application Team
   5:src/stm32l1xx_it.c ****   * @version V1.0.0
   6:src/stm32l1xx_it.c ****   * @date    29-July-2013
   7:src/stm32l1xx_it.c ****   * @brief   Main Interrupt Service Routines.
   8:src/stm32l1xx_it.c ****   *          This file provides template for all exceptions handler and
   9:src/stm32l1xx_it.c ****   *          peripherals interrupt service routine.
  10:src/stm32l1xx_it.c ****   ******************************************************************************
  11:src/stm32l1xx_it.c ****   * @attention
  12:src/stm32l1xx_it.c ****   *
  13:src/stm32l1xx_it.c ****   * <h2><center>&copy; COPYRIGHT 2013 STMicroelectronics</center></h2>
  14:src/stm32l1xx_it.c ****   *
  15:src/stm32l1xx_it.c ****   * Licensed under MCD-ST Liberty SW License Agreement V2, (the "License");
  16:src/stm32l1xx_it.c ****   * You may not use this file except in compliance with the License.
  17:src/stm32l1xx_it.c ****   * You may obtain a copy of the License at:
  18:src/stm32l1xx_it.c ****   *
  19:src/stm32l1xx_it.c ****   *        http://www.st.com/software_license_agreement_liberty_v2
  20:src/stm32l1xx_it.c ****   *
  21:src/stm32l1xx_it.c ****   * Unless required by applicable law or agreed to in writing, software
  22:src/stm32l1xx_it.c ****   * distributed under the License is distributed on an "AS IS" BASIS,
  23:src/stm32l1xx_it.c ****   * WITHOUT WARRANTIES OR CONDITIONS OF ANY KIND, either express or implied.
  24:src/stm32l1xx_it.c ****   * See the License for the specific language governing permissions and
  25:src/stm32l1xx_it.c ****   * limitations under the License.
  26:src/stm32l1xx_it.c ****   *
  27:src/stm32l1xx_it.c ****   ******************************************************************************
  28:src/stm32l1xx_it.c ****   */
  29:src/stm32l1xx_it.c **** 
  30:src/stm32l1xx_it.c **** /* Includes ------------------------------------------------------------------*/
  31:src/stm32l1xx_it.c **** #include "stm32l1xx_it.h"
  32:src/stm32l1xx_it.c **** #include "main.h"
  33:src/stm32l1xx_it.c **** 
  34:src/stm32l1xx_it.c **** /** @addtogroup STM32L100C-Discovery_Demo
ARM GAS  /tmp/ccLyDO9R.s 			page 3


  35:src/stm32l1xx_it.c ****   * @{
  36:src/stm32l1xx_it.c ****   */
  37:src/stm32l1xx_it.c **** 
  38:src/stm32l1xx_it.c **** /* Private typedef -----------------------------------------------------------*/
  39:src/stm32l1xx_it.c **** /* Private define ------------------------------------------------------------*/
  40:src/stm32l1xx_it.c **** /* Private macro -------------------------------------------------------------*/
  41:src/stm32l1xx_it.c **** /* Private variables ---------------------------------------------------------*/
  42:src/stm32l1xx_it.c **** /* Private function prototypes -----------------------------------------------*/
  43:src/stm32l1xx_it.c **** /* Private functions ---------------------------------------------------------*/
  44:src/stm32l1xx_it.c **** 
  45:src/stm32l1xx_it.c **** /******************************************************************************/
  46:src/stm32l1xx_it.c **** /*            Cortex-M3 Processor Exceptions Handlers                         */
  47:src/stm32l1xx_it.c **** /******************************************************************************/
  48:src/stm32l1xx_it.c **** 
  49:src/stm32l1xx_it.c **** /**
  50:src/stm32l1xx_it.c ****   * @brief  This function handles NMI exception.
  51:src/stm32l1xx_it.c ****   * @param  None
  52:src/stm32l1xx_it.c ****   * @retval None
  53:src/stm32l1xx_it.c ****   */
  54:src/stm32l1xx_it.c **** void NMI_Handler(void)
  55:src/stm32l1xx_it.c **** {
  81              		.loc 1 55 0
  82              		.cfi_startproc
  83              		@ args = 0, pretend = 0, frame = 0
  84              		@ frame_needed = 0, uses_anonymous_args = 0
  85              		@ link register save eliminated.
  86 0000 7047     		bx	lr	@
  87              		.cfi_endproc
  88              	.LFE56:
  89              		.size	NMI_Handler, .-NMI_Handler
  90 0002 00BF     		.align	2
  91              		.global	HardFault_Handler
  92              		.thumb
  93              		.thumb_func
  94              		.type	HardFault_Handler, %function
  95              	HardFault_Handler:
  96              	.LFB57:
  56:src/stm32l1xx_it.c **** }
  57:src/stm32l1xx_it.c **** 
  58:src/stm32l1xx_it.c **** /**
  59:src/stm32l1xx_it.c ****   * @brief  This function handles Hard Fault exception.
  60:src/stm32l1xx_it.c ****   * @param  None
  61:src/stm32l1xx_it.c ****   * @retval None
  62:src/stm32l1xx_it.c ****   */
  63:src/stm32l1xx_it.c **** void HardFault_Handler(void)
  64:src/stm32l1xx_it.c **** {
  97              		.loc 1 64 0
  98              		.cfi_startproc
  99              		@ Volatile: function does not return.
 100              		@ args = 0, pretend = 0, frame = 0
 101              		@ frame_needed = 0, uses_anonymous_args = 0
 102              		@ link register save eliminated.
 103              	.L3:
 104 0004 FEE7     		b	.L3	@
 105              		.cfi_endproc
 106              	.LFE57:
 107              		.size	HardFault_Handler, .-HardFault_Handler
ARM GAS  /tmp/ccLyDO9R.s 			page 4


 108 0006 00BF     		.align	2
 109              		.global	MemManage_Handler
 110              		.thumb
 111              		.thumb_func
 112              		.type	MemManage_Handler, %function
 113              	MemManage_Handler:
 114              	.LFB58:
  65:src/stm32l1xx_it.c ****   /* Go to infinite loop when Hard Fault exception occurs */
  66:src/stm32l1xx_it.c ****   while (1)
  67:src/stm32l1xx_it.c ****   {
  68:src/stm32l1xx_it.c ****   }
  69:src/stm32l1xx_it.c **** }
  70:src/stm32l1xx_it.c **** 
  71:src/stm32l1xx_it.c **** /**
  72:src/stm32l1xx_it.c ****   * @brief  This function handles Memory Manage exception.
  73:src/stm32l1xx_it.c ****   * @param  None
  74:src/stm32l1xx_it.c ****   * @retval None
  75:src/stm32l1xx_it.c ****   */
  76:src/stm32l1xx_it.c **** void MemManage_Handler(void)
  77:src/stm32l1xx_it.c **** {
 115              		.loc 1 77 0
 116              		.cfi_startproc
 117              		@ Volatile: function does not return.
 118              		@ args = 0, pretend = 0, frame = 0
 119              		@ frame_needed = 0, uses_anonymous_args = 0
 120              		@ link register save eliminated.
 121              	.L5:
 122 0008 FEE7     		b	.L5	@
 123              		.cfi_endproc
 124              	.LFE58:
 125              		.size	MemManage_Handler, .-MemManage_Handler
 126 000a 00BF     		.align	2
 127              		.global	BusFault_Handler
 128              		.thumb
 129              		.thumb_func
 130              		.type	BusFault_Handler, %function
 131              	BusFault_Handler:
 132              	.LFB59:
  78:src/stm32l1xx_it.c ****   /* Go to infinite loop when Memory Manage exception occurs */
  79:src/stm32l1xx_it.c ****   while (1)
  80:src/stm32l1xx_it.c ****   {
  81:src/stm32l1xx_it.c ****   }
  82:src/stm32l1xx_it.c **** }
  83:src/stm32l1xx_it.c **** 
  84:src/stm32l1xx_it.c **** /**
  85:src/stm32l1xx_it.c ****   * @brief  This function handles Bus Fault exception.
  86:src/stm32l1xx_it.c ****   * @param  None
  87:src/stm32l1xx_it.c ****   * @retval None
  88:src/stm32l1xx_it.c ****   */
  89:src/stm32l1xx_it.c **** void BusFault_Handler(void)
  90:src/stm32l1xx_it.c **** {
 133              		.loc 1 90 0
 134              		.cfi_startproc
 135              		@ Volatile: function does not return.
 136              		@ args = 0, pretend = 0, frame = 0
 137              		@ frame_needed = 0, uses_anonymous_args = 0
 138              		@ link register save eliminated.
ARM GAS  /tmp/ccLyDO9R.s 			page 5


 139              	.L7:
 140 000c FEE7     		b	.L7	@
 141              		.cfi_endproc
 142              	.LFE59:
 143              		.size	BusFault_Handler, .-BusFault_Handler
 144 000e 00BF     		.align	2
 145              		.global	UsageFault_Handler
 146              		.thumb
 147              		.thumb_func
 148              		.type	UsageFault_Handler, %function
 149              	UsageFault_Handler:
 150              	.LFB60:
  91:src/stm32l1xx_it.c ****   /* Go to infinite loop when Bus Fault exception occurs */
  92:src/stm32l1xx_it.c ****   while (1)
  93:src/stm32l1xx_it.c ****   {
  94:src/stm32l1xx_it.c ****   }
  95:src/stm32l1xx_it.c **** }
  96:src/stm32l1xx_it.c **** 
  97:src/stm32l1xx_it.c **** /**
  98:src/stm32l1xx_it.c ****   * @brief  This function handles Usage Fault exception.
  99:src/stm32l1xx_it.c ****   * @param  None
 100:src/stm32l1xx_it.c ****   * @retval None
 101:src/stm32l1xx_it.c ****   */
 102:src/stm32l1xx_it.c **** void UsageFault_Handler(void)
 103:src/stm32l1xx_it.c **** {
 151              		.loc 1 103 0
 152              		.cfi_startproc
 153              		@ Volatile: function does not return.
 154              		@ args = 0, pretend = 0, frame = 0
 155              		@ frame_needed = 0, uses_anonymous_args = 0
 156              		@ link register save eliminated.
 157              	.L9:
 158 0010 FEE7     		b	.L9	@
 159              		.cfi_endproc
 160              	.LFE60:
 161              		.size	UsageFault_Handler, .-UsageFault_Handler
 162 0012 00BF     		.align	2
 163              		.global	SVC_Handler
 164              		.thumb
 165              		.thumb_func
 166              		.type	SVC_Handler, %function
 167              	SVC_Handler:
 168              	.LFB61:
 104:src/stm32l1xx_it.c ****   /* Go to infinite loop when Usage Fault exception occurs */
 105:src/stm32l1xx_it.c ****   while (1)
 106:src/stm32l1xx_it.c ****   {
 107:src/stm32l1xx_it.c ****   }
 108:src/stm32l1xx_it.c **** }
 109:src/stm32l1xx_it.c **** 
 110:src/stm32l1xx_it.c **** /**
 111:src/stm32l1xx_it.c ****   * @brief  This function handles SVCall exception.
 112:src/stm32l1xx_it.c ****   * @param  None
 113:src/stm32l1xx_it.c ****   * @retval None
 114:src/stm32l1xx_it.c ****   */
 115:src/stm32l1xx_it.c **** void SVC_Handler(void)
 116:src/stm32l1xx_it.c **** {
 169              		.loc 1 116 0
ARM GAS  /tmp/ccLyDO9R.s 			page 6


 170              		.cfi_startproc
 171              		@ args = 0, pretend = 0, frame = 0
 172              		@ frame_needed = 0, uses_anonymous_args = 0
 173              		@ link register save eliminated.
 174 0014 7047     		bx	lr	@
 175              		.cfi_endproc
 176              	.LFE61:
 177              		.size	SVC_Handler, .-SVC_Handler
 178 0016 00BF     		.align	2
 179              		.global	DebugMon_Handler
 180              		.thumb
 181              		.thumb_func
 182              		.type	DebugMon_Handler, %function
 183              	DebugMon_Handler:
 184              	.LFB62:
 117:src/stm32l1xx_it.c **** }
 118:src/stm32l1xx_it.c **** 
 119:src/stm32l1xx_it.c **** /**
 120:src/stm32l1xx_it.c ****   * @brief  This function handles Debug Monitor exception.
 121:src/stm32l1xx_it.c ****   * @param  None
 122:src/stm32l1xx_it.c ****   * @retval None
 123:src/stm32l1xx_it.c ****   */
 124:src/stm32l1xx_it.c **** void DebugMon_Handler(void)
 125:src/stm32l1xx_it.c **** {
 185              		.loc 1 125 0
 186              		.cfi_startproc
 187              		@ args = 0, pretend = 0, frame = 0
 188              		@ frame_needed = 0, uses_anonymous_args = 0
 189              		@ link register save eliminated.
 190 0018 7047     		bx	lr	@
 191              		.cfi_endproc
 192              	.LFE62:
 193              		.size	DebugMon_Handler, .-DebugMon_Handler
 194 001a 00BF     		.align	2
 195              		.global	PendSV_Handler
 196              		.thumb
 197              		.thumb_func
 198              		.type	PendSV_Handler, %function
 199              	PendSV_Handler:
 200              	.LFB63:
 126:src/stm32l1xx_it.c **** }
 127:src/stm32l1xx_it.c **** 
 128:src/stm32l1xx_it.c **** /**
 129:src/stm32l1xx_it.c ****   * @brief  This function handles PendSVC exception.
 130:src/stm32l1xx_it.c ****   * @param  None
 131:src/stm32l1xx_it.c ****   * @retval None
 132:src/stm32l1xx_it.c ****   */
 133:src/stm32l1xx_it.c **** void PendSV_Handler(void)
 134:src/stm32l1xx_it.c **** {
 201              		.loc 1 134 0
 202              		.cfi_startproc
 203              		@ args = 0, pretend = 0, frame = 0
 204              		@ frame_needed = 0, uses_anonymous_args = 0
 205              		@ link register save eliminated.
 206 001c 7047     		bx	lr	@
 207              		.cfi_endproc
 208              	.LFE63:
ARM GAS  /tmp/ccLyDO9R.s 			page 7


 209              		.size	PendSV_Handler, .-PendSV_Handler
 210 001e 00BF     		.align	2
 211              		.global	SysTick_Handler
 212              		.thumb
 213              		.thumb_func
 214              		.type	SysTick_Handler, %function
 215              	SysTick_Handler:
 216              	.LFB64:
 135:src/stm32l1xx_it.c **** }
 136:src/stm32l1xx_it.c **** 
 137:src/stm32l1xx_it.c **** /**
 138:src/stm32l1xx_it.c ****   * @brief  This function handles SysTick Handler.
 139:src/stm32l1xx_it.c ****   * @param  None
 140:src/stm32l1xx_it.c ****   * @retval None
 141:src/stm32l1xx_it.c ****   */
 142:src/stm32l1xx_it.c **** void SysTick_Handler(void)
 143:src/stm32l1xx_it.c **** {
 217              		.loc 1 143 0
 218              		.cfi_startproc
 219              		@ args = 0, pretend = 0, frame = 0
 220              		@ frame_needed = 0, uses_anonymous_args = 0
 221              		@ link register save eliminated.
 144:src/stm32l1xx_it.c ****   TimingDelay_Decrement();
 222              		.loc 1 144 0
 223 0020 FFF7FEBF 		b	TimingDelay_Decrement	@
 224              	.LVL0:
 225              		.cfi_endproc
 226              	.LFE64:
 227              		.size	SysTick_Handler, .-SysTick_Handler
 228              	.Letext0:
 229              		.file 2 "/home/zbanks/gcc-arm-none-eabi/arm-none-eabi/include/stdint.h"
 230              		.file 3 "./inc/core_cm3.h"
 231              		.file 4 "./inc/main.h"