ARM GAS  /tmp/cckM5Epi.s 			page 1


   1              		.syntax unified
   2              		.cpu cortex-m3
   3              		.fpu softvfp
   4              		.eabi_attribute 20, 1	@ Tag_ABI_FP_denormal
   5              		.eabi_attribute 21, 1	@ Tag_ABI_FP_exceptions
   6              		.eabi_attribute 23, 3	@ Tag_ABI_FP_number_model
   7              		.eabi_attribute 24, 1	@ Tag_ABI_align8_needed
   8              		.eabi_attribute 25, 1	@ Tag_ABI_align8_preserved
   9              		.eabi_attribute 26, 1	@ Tag_ABI_enum_size
  10              		.eabi_attribute 30, 2	@ Tag_ABI_optimization_goals
  11              		.eabi_attribute 34, 1	@ Tag_CPU_unaligned_access
  12              		.eabi_attribute 18, 4	@ Tag_ABI_PCS_wchar_t
  13              		.file	"stm32l100c_discovery.c"
  14              	@ GNU C (GNU Tools for ARM Embedded Processors) version 4.8.3 20131129 (release) [ARM/embedded-4_8-
  15              	@	compiled by GNU C version 4.3.6, GMP version 4.3.2, MPFR version 2.4.2, MPC version 0.8.1
  16              	@ GGC heuristics: --param ggc-min-expand=100 --param ggc-min-heapsize=131072
  17              	@ options passed:  -I . -I ./inc
  18              	@ -I /home/zbanks//STM32L1xx_StdPeriph_Lib_V1.2.0/Libraries/CMSIS/Device/ST/STM32F0xx/Include
  19              	@ -I /home/zbanks//STM32L1xx_StdPeriph_Lib_V1.2.0/Libraries/CMSIS/Include
  20              	@ -I /home/zbanks//STM32L1xx_StdPeriph_Lib_V1.2.0/Libraries/STM32L1xx_StdPeriph_Driver/inc
  21              	@ -I ./inc -imultilib armv7-m
  22              	@ -iprefix /home/zbanks/gcc-arm-none-eabi/bin/../lib/gcc/arm-none-eabi/4.8.3/
  23              	@ -isysroot /home/zbanks/gcc-arm-none-eabi/bin/../arm-none-eabi
  24              	@ -MD src/stm32l100c_discovery.d -MF .dep/stm32l100c_discovery.o.d -MP
  25              	@ -MQ src/stm32l100c_discovery.o -D__USES_INITFINI__ -D STM32L1XX
  26              	@ -D USE_STDPERIPH_DRIVER -D malloc_getpagesize=256 -D RUN_FROM_FLASH=1
  27              	@ src/stm32l100c_discovery.c -mcpu=cortex-m3 -mthumb
  28              	@ -auxbase-strip src/stm32l100c_discovery.o -g -gdwarf-2 -O3 -Wall
  29              	@ -Wstrict-prototypes -std=c99 -fomit-frame-pointer -fverbose-asm
  30              	@ options enabled:  -faggressive-loop-optimizations -fauto-inc-dec
  31              	@ -fbranch-count-reg -fcaller-saves -fcombine-stack-adjustments -fcommon
  32              	@ -fcompare-elim -fcprop-registers -fcrossjumping -fcse-follow-jumps
  33              	@ -fdefer-pop -fdelete-null-pointer-checks -fdevirtualize -fdwarf2-cfi-asm
  34              	@ -fearly-inlining -feliminate-unused-debug-types -fexpensive-optimizations
  35              	@ -fforward-propagate -ffunction-cse -fgcse -fgcse-after-reload -fgcse-lm
  36              	@ -fgnu-runtime -fguess-branch-probability -fhoist-adjacent-loads -fident
  37              	@ -fif-conversion -fif-conversion2 -findirect-inlining -finline
  38              	@ -finline-atomics -finline-functions -finline-functions-called-once
  39              	@ -finline-small-functions -fipa-cp -fipa-cp-clone -fipa-profile
  40              	@ -fipa-pure-const -fipa-reference -fipa-sra -fira-hoist-pressure
  41              	@ -fira-share-save-slots -fira-share-spill-slots -fivopts
  42              	@ -fkeep-static-consts -fleading-underscore -fmath-errno -fmerge-constants
  43              	@ -fmerge-debug-strings -fmove-loop-invariants -fomit-frame-pointer
  44              	@ -foptimize-register-move -foptimize-sibling-calls -foptimize-strlen
  45              	@ -fpartial-inlining -fpeephole -fpeephole2 -fpredictive-commoning
  46              	@ -fprefetch-loop-arrays -freg-struct-return -fregmove -freorder-blocks
  47              	@ -freorder-functions -frerun-cse-after-loop
  48              	@ -fsched-critical-path-heuristic -fsched-dep-count-heuristic
  49              	@ -fsched-group-heuristic -fsched-interblock -fsched-last-insn-heuristic
  50              	@ -fsched-pressure -fsched-rank-heuristic -fsched-spec
  51              	@ -fsched-spec-insn-heuristic -fsched-stalled-insns-dep -fschedule-insns
  52              	@ -fschedule-insns2 -fsection-anchors -fshow-column -fshrink-wrap
  53              	@ -fsigned-zeros -fsplit-ivs-in-unroller -fsplit-wide-types
  54              	@ -fstrict-aliasing -fstrict-overflow -fstrict-volatile-bitfields
  55              	@ -fsync-libcalls -fthread-jumps -ftoplevel-reorder -ftrapping-math
  56              	@ -ftree-bit-ccp -ftree-builtin-call-dce -ftree-ccp -ftree-ch
  57              	@ -ftree-coalesce-vars -ftree-copy-prop -ftree-copyrename -ftree-cselim
ARM GAS  /tmp/cckM5Epi.s 			page 2


  58              	@ -ftree-dce -ftree-dominator-opts -ftree-dse -ftree-forwprop -ftree-fre
  59              	@ -ftree-loop-distribute-patterns -ftree-loop-if-convert -ftree-loop-im
  60              	@ -ftree-loop-ivcanon -ftree-loop-optimize -ftree-parallelize-loops=
  61              	@ -ftree-partial-pre -ftree-phiprop -ftree-pre -ftree-pta -ftree-reassoc
  62              	@ -ftree-scev-cprop -ftree-sink -ftree-slp-vectorize -ftree-slsr -ftree-sra
  63              	@ -ftree-switch-conversion -ftree-tail-merge -ftree-ter
  64              	@ -ftree-vect-loop-version -ftree-vectorize -ftree-vrp -funit-at-a-time
  65              	@ -funswitch-loops -fvar-tracking -fvar-tracking-assignments
  66              	@ -fvect-cost-model -fverbose-asm -fzero-initialized-in-bss
  67              	@ -mfix-cortex-m3-ldrd -mlittle-endian -mpic-data-is-text-relative
  68              	@ -msched-prolog -mthumb -munaligned-access -mvectorize-with-neon-quad
  69              	
  70              		.text
  71              	.Ltext0:
  72              		.cfi_sections	.debug_frame
  73              		.align	2
  74              		.global	STM_EVAL_LEDInit
  75              		.thumb
  76              		.thumb_func
  77              		.type	STM_EVAL_LEDInit, %function
  78              	STM_EVAL_LEDInit:
  79              	.LFB56:
  80              		.file 1 "src/stm32l100c_discovery.c"
   1:src/stm32l100c_discovery.c **** /**
   2:src/stm32l100c_discovery.c ****   ******************************************************************************
   3:src/stm32l100c_discovery.c ****   * @file    stm32l100c_discovery.c
   4:src/stm32l100c_discovery.c ****   * @author  MCD Application Team
   5:src/stm32l100c_discovery.c ****   * @version V1.0.0
   6:src/stm32l100c_discovery.c ****   * @date    29-July-2013
   7:src/stm32l100c_discovery.c ****   * @brief   This file provides set of firmware functions to manage Leds and
   8:src/stm32l100c_discovery.c ****   *          push-button available on STM32L100C-Discovery Kit from STMicroelectronics.
   9:src/stm32l100c_discovery.c ****   ******************************************************************************
  10:src/stm32l100c_discovery.c ****   * @attention
  11:src/stm32l100c_discovery.c ****   *
  12:src/stm32l100c_discovery.c ****   * <h2><center>&copy; COPYRIGHT 2013 STMicroelectronics</center></h2>
  13:src/stm32l100c_discovery.c ****   *
  14:src/stm32l100c_discovery.c ****   * Licensed under MCD-ST Liberty SW License Agreement V2, (the "License");
  15:src/stm32l100c_discovery.c ****   * You may not use this file except in compliance with the License.
  16:src/stm32l100c_discovery.c ****   * You may obtain a copy of the License at:
  17:src/stm32l100c_discovery.c ****   *
  18:src/stm32l100c_discovery.c ****   *        http://www.st.com/software_license_agreement_liberty_v2
  19:src/stm32l100c_discovery.c ****   *
  20:src/stm32l100c_discovery.c ****   * Unless required by applicable law or agreed to in writing, software 
  21:src/stm32l100c_discovery.c ****   * distributed under the License is distributed on an "AS IS" BASIS, 
  22:src/stm32l100c_discovery.c ****   * WITHOUT WARRANTIES OR CONDITIONS OF ANY KIND, either express or implied.
  23:src/stm32l100c_discovery.c ****   * See the License for the specific language governing permissions and
  24:src/stm32l100c_discovery.c ****   * limitations under the License.
  25:src/stm32l100c_discovery.c ****   *
  26:src/stm32l100c_discovery.c ****   ******************************************************************************
  27:src/stm32l100c_discovery.c ****   */
  28:src/stm32l100c_discovery.c ****   
  29:src/stm32l100c_discovery.c **** /* Includes ------------------------------------------------------------------*/
  30:src/stm32l100c_discovery.c **** #include "stm32l100c_discovery.h"
  31:src/stm32l100c_discovery.c **** 
  32:src/stm32l100c_discovery.c **** /** @addtogroup Utilities
  33:src/stm32l100c_discovery.c ****   * @{
  34:src/stm32l100c_discovery.c ****   */ 
ARM GAS  /tmp/cckM5Epi.s 			page 3


  35:src/stm32l100c_discovery.c **** 
  36:src/stm32l100c_discovery.c **** /** @addtogroup STM32L100C_DISCOVERY
  37:src/stm32l100c_discovery.c ****   * @{
  38:src/stm32l100c_discovery.c ****   */ 
  39:src/stm32l100c_discovery.c ****     
  40:src/stm32l100c_discovery.c **** /** @defgroup STM32L100C_DISCOVERY_LOW_LEVEL 
  41:src/stm32l100c_discovery.c ****   * @brief This file provides firmware functions to manage Leds and push-buttons, 
  42:src/stm32l100c_discovery.c ****   *        available on STM32L100C_DISCOVERY evaluation board from STMicroelectronics.
  43:src/stm32l100c_discovery.c ****   * @{
  44:src/stm32l100c_discovery.c ****   */ 
  45:src/stm32l100c_discovery.c **** 
  46:src/stm32l100c_discovery.c **** /** @defgroup STM32L100C_DISCOVERY_LOW_LEVEL_Private_TypesDefinitions
  47:src/stm32l100c_discovery.c ****   * @{
  48:src/stm32l100c_discovery.c ****   */ 
  49:src/stm32l100c_discovery.c **** /**
  50:src/stm32l100c_discovery.c ****   * @}
  51:src/stm32l100c_discovery.c ****   */ 
  52:src/stm32l100c_discovery.c **** 
  53:src/stm32l100c_discovery.c **** 
  54:src/stm32l100c_discovery.c **** /** @defgroup STM32L100C_DISCOVERY_LOW_LEVEL_Private_Defines
  55:src/stm32l100c_discovery.c ****   * @{
  56:src/stm32l100c_discovery.c ****   */ 
  57:src/stm32l100c_discovery.c **** /**
  58:src/stm32l100c_discovery.c ****   * @}
  59:src/stm32l100c_discovery.c ****   */ 
  60:src/stm32l100c_discovery.c **** 
  61:src/stm32l100c_discovery.c **** 
  62:src/stm32l100c_discovery.c **** /** @defgroup STM32L100C_DISCOVERY_LOW_LEVEL_Private_Macros
  63:src/stm32l100c_discovery.c ****   * @{
  64:src/stm32l100c_discovery.c ****   */ 
  65:src/stm32l100c_discovery.c **** /**
  66:src/stm32l100c_discovery.c ****   * @}
  67:src/stm32l100c_discovery.c ****   */ 
  68:src/stm32l100c_discovery.c **** 
  69:src/stm32l100c_discovery.c **** 
  70:src/stm32l100c_discovery.c **** /** @defgroup STM32L100C_DISCOVERY_LOW_LEVEL_Private_Variables
  71:src/stm32l100c_discovery.c ****   * @{
  72:src/stm32l100c_discovery.c ****   */ 
  73:src/stm32l100c_discovery.c **** GPIO_TypeDef* GPIO_PORT[LEDn] = {LED3_GPIO_PORT, LED4_GPIO_PORT};
  74:src/stm32l100c_discovery.c **** const uint16_t GPIO_PIN[LEDn] = {LED3_PIN, LED4_PIN};
  75:src/stm32l100c_discovery.c **** const uint32_t GPIO_CLK[LEDn] = {LED3_GPIO_CLK, LED4_GPIO_CLK};
  76:src/stm32l100c_discovery.c **** 
  77:src/stm32l100c_discovery.c **** GPIO_TypeDef* BUTTON_PORT[BUTTONn] = {USER_BUTTON_GPIO_PORT}; 
  78:src/stm32l100c_discovery.c **** 
  79:src/stm32l100c_discovery.c **** const uint16_t BUTTON_PIN[BUTTONn] = {USER_BUTTON_PIN}; 
  80:src/stm32l100c_discovery.c **** 
  81:src/stm32l100c_discovery.c **** const uint32_t BUTTON_CLK[BUTTONn] = {USER_BUTTON_GPIO_CLK};
  82:src/stm32l100c_discovery.c **** 
  83:src/stm32l100c_discovery.c **** const uint16_t BUTTON_EXTI_LINE[BUTTONn] = {USER_BUTTON_EXTI_LINE};
  84:src/stm32l100c_discovery.c **** 
  85:src/stm32l100c_discovery.c **** const uint16_t BUTTON_PORT_SOURCE[BUTTONn] = {USER_BUTTON_EXTI_PORT_SOURCE};
  86:src/stm32l100c_discovery.c **** 								 
  87:src/stm32l100c_discovery.c **** const uint16_t BUTTON_PIN_SOURCE[BUTTONn] = {USER_BUTTON_EXTI_PIN_SOURCE}; 
  88:src/stm32l100c_discovery.c **** 
  89:src/stm32l100c_discovery.c **** const uint16_t BUTTON_IRQn[BUTTONn] = {USER_BUTTON_EXTI_IRQn};
  90:src/stm32l100c_discovery.c **** 
  91:src/stm32l100c_discovery.c **** /**
ARM GAS  /tmp/cckM5Epi.s 			page 4


  92:src/stm32l100c_discovery.c ****   * @}
  93:src/stm32l100c_discovery.c ****   */ 
  94:src/stm32l100c_discovery.c **** 
  95:src/stm32l100c_discovery.c **** 
  96:src/stm32l100c_discovery.c **** /** @defgroup STM32L100C_DISCOVERY_LOW_LEVEL_Private_FunctionPrototypes
  97:src/stm32l100c_discovery.c ****   * @{
  98:src/stm32l100c_discovery.c ****   */ 
  99:src/stm32l100c_discovery.c **** 
 100:src/stm32l100c_discovery.c **** /**
 101:src/stm32l100c_discovery.c ****   * @}
 102:src/stm32l100c_discovery.c ****   */ 
 103:src/stm32l100c_discovery.c **** 
 104:src/stm32l100c_discovery.c **** /** @defgroup STM32L100C_DISCOVERY_LOW_LEVEL_Private_Functions
 105:src/stm32l100c_discovery.c ****   * @{
 106:src/stm32l100c_discovery.c ****   */ 
 107:src/stm32l100c_discovery.c **** 
 108:src/stm32l100c_discovery.c **** /**
 109:src/stm32l100c_discovery.c ****   * @brief  Configures LED GPIO.
 110:src/stm32l100c_discovery.c ****   * @param  Led: Specifies the Led to be configured. 
 111:src/stm32l100c_discovery.c ****   *   This parameter can be one of following parameters:
 112:src/stm32l100c_discovery.c ****   *     @arg LED3
 113:src/stm32l100c_discovery.c ****   *     @arg LED4
 114:src/stm32l100c_discovery.c ****   * @retval None
 115:src/stm32l100c_discovery.c ****   */
 116:src/stm32l100c_discovery.c **** void STM_EVAL_LEDInit(Led_TypeDef Led)
 117:src/stm32l100c_discovery.c **** {
  81              		.loc 1 117 0
  82              		.cfi_startproc
  83              		@ args = 0, pretend = 0, frame = 8
  84              		@ frame_needed = 0, uses_anonymous_args = 0
  85              	.LVL0:
  86 0000 30B5     		push	{r4, r5, lr}	@
  87              	.LCFI0:
  88              		.cfi_def_cfa_offset 12
  89              		.cfi_offset 4, -12
  90              		.cfi_offset 5, -8
  91              		.cfi_offset 14, -4
 118:src/stm32l100c_discovery.c ****   GPIO_InitTypeDef  GPIO_InitStructure;
 119:src/stm32l100c_discovery.c ****   
 120:src/stm32l100c_discovery.c ****   /* Enable the GPIO_LED Clock */
 121:src/stm32l100c_discovery.c ****   RCC_AHBPeriphClockCmd(GPIO_CLK[Led], ENABLE);
  92              		.loc 1 121 0
  93 0002 0F4D     		ldr	r5, .L2	@ tmp116,
 117:src/stm32l100c_discovery.c **** {
  94              		.loc 1 117 0
  95 0004 83B0     		sub	sp, sp, #12	@,,
  96              	.LCFI1:
  97              		.cfi_def_cfa_offset 24
 117:src/stm32l100c_discovery.c **** {
  98              		.loc 1 117 0
  99 0006 0446     		mov	r4, r0	@ Led, Led
 100              		.loc 1 121 0
 101 0008 0121     		movs	r1, #1	@,
 102 000a 55F82000 		ldr	r0, [r5, r0, lsl #2]	@, GPIO_CLK
 103              	.LVL1:
 104 000e FFF7FEFF 		bl	RCC_AHBPeriphClockCmd	@
 105              	.LVL2:
ARM GAS  /tmp/cckM5Epi.s 			page 5


 122:src/stm32l100c_discovery.c **** 
 123:src/stm32l100c_discovery.c ****   /* Configure the GPIO_LED pin */
 124:src/stm32l100c_discovery.c ****   GPIO_InitStructure.GPIO_Pin = GPIO_PIN[Led];
 106              		.loc 1 124 0
 107 0012 05EB4405 		add	r5, r5, r4, lsl #1	@, tmp119, tmp116, Led,
 125:src/stm32l100c_discovery.c ****   GPIO_InitStructure.GPIO_Mode = GPIO_Mode_OUT;
 126:src/stm32l100c_discovery.c ****   GPIO_InitStructure.GPIO_OType = GPIO_OType_PP;
 127:src/stm32l100c_discovery.c ****   GPIO_InitStructure.GPIO_PuPd = GPIO_PuPd_NOPULL;
 128:src/stm32l100c_discovery.c ****   GPIO_InitStructure.GPIO_Speed = GPIO_Speed_40MHz;
 129:src/stm32l100c_discovery.c ****   GPIO_Init(GPIO_PORT[Led], &GPIO_InitStructure);
 108              		.loc 1 129 0
 109 0016 0B4B     		ldr	r3, .L2+4	@ tmp130,
 124:src/stm32l100c_discovery.c ****   GPIO_InitStructure.GPIO_Pin = GPIO_PIN[Led];
 110              		.loc 1 124 0
 111 0018 2D89     		ldrh	r5, [r5, #8]	@ tmp121, GPIO_PIN
 112              		.loc 1 129 0
 113 001a 53F82400 		ldr	r0, [r3, r4, lsl #2]	@, GPIO_PORT
 128:src/stm32l100c_discovery.c ****   GPIO_InitStructure.GPIO_Speed = GPIO_Speed_40MHz;
 114              		.loc 1 128 0
 115 001e 0322     		movs	r2, #3	@ tmp128,
 126:src/stm32l100c_discovery.c ****   GPIO_InitStructure.GPIO_OType = GPIO_OType_PP;
 116              		.loc 1 126 0
 117 0020 0023     		movs	r3, #0	@ tmp124,
 125:src/stm32l100c_discovery.c ****   GPIO_InitStructure.GPIO_Mode = GPIO_Mode_OUT;
 118              		.loc 1 125 0
 119 0022 0124     		movs	r4, #1	@ tmp122,
 120              		.loc 1 129 0
 121 0024 6946     		mov	r1, sp	@,
 124:src/stm32l100c_discovery.c ****   GPIO_InitStructure.GPIO_Pin = GPIO_PIN[Led];
 122              		.loc 1 124 0
 123 0026 0095     		str	r5, [sp]	@ tmp121, GPIO_InitStructure.GPIO_Pin
 125:src/stm32l100c_discovery.c ****   GPIO_InitStructure.GPIO_Mode = GPIO_Mode_OUT;
 124              		.loc 1 125 0
 125 0028 8DF80440 		strb	r4, [sp, #4]	@ tmp122, GPIO_InitStructure.GPIO_Mode
 126:src/stm32l100c_discovery.c ****   GPIO_InitStructure.GPIO_OType = GPIO_OType_PP;
 126              		.loc 1 126 0
 127 002c 8DF80630 		strb	r3, [sp, #6]	@ tmp124, GPIO_InitStructure.GPIO_OType
 127:src/stm32l100c_discovery.c ****   GPIO_InitStructure.GPIO_PuPd = GPIO_PuPd_NOPULL;
 128              		.loc 1 127 0
 129 0030 8DF80730 		strb	r3, [sp, #7]	@ tmp124, GPIO_InitStructure.GPIO_PuPd
 128:src/stm32l100c_discovery.c ****   GPIO_InitStructure.GPIO_Speed = GPIO_Speed_40MHz;
 130              		.loc 1 128 0
 131 0034 8DF80520 		strb	r2, [sp, #5]	@ tmp128, GPIO_InitStructure.GPIO_Speed
 132              		.loc 1 129 0
 133 0038 FFF7FEFF 		bl	GPIO_Init	@
 134              	.LVL3:
 130:src/stm32l100c_discovery.c **** }
 135              		.loc 1 130 0
 136 003c 03B0     		add	sp, sp, #12	@,,
 137              		@ sp needed	@
 138 003e 30BD     		pop	{r4, r5, pc}	@
 139              	.L3:
 140              		.align	2
 141              	.L2:
 142 0040 00000000 		.word	.LANCHOR0
 143 0044 00000000 		.word	.LANCHOR1
 144              		.cfi_endproc
ARM GAS  /tmp/cckM5Epi.s 			page 6


 145              	.LFE56:
 146              		.size	STM_EVAL_LEDInit, .-STM_EVAL_LEDInit
 147              		.align	2
 148              		.global	STM_EVAL_LEDOn
 149              		.thumb
 150              		.thumb_func
 151              		.type	STM_EVAL_LEDOn, %function
 152              	STM_EVAL_LEDOn:
 153              	.LFB57:
 131:src/stm32l100c_discovery.c **** 
 132:src/stm32l100c_discovery.c **** /**
 133:src/stm32l100c_discovery.c ****   * @brief  Turns selected LED On.
 134:src/stm32l100c_discovery.c ****   * @param  Led: Specifies the Led to be set on. 
 135:src/stm32l100c_discovery.c ****   *   This parameter can be one of following parameters:
 136:src/stm32l100c_discovery.c ****   *     @arg LED3
 137:src/stm32l100c_discovery.c ****   *     @arg LED4  
 138:src/stm32l100c_discovery.c ****   * @retval None
 139:src/stm32l100c_discovery.c ****   */
 140:src/stm32l100c_discovery.c **** void STM_EVAL_LEDOn(Led_TypeDef Led)
 141:src/stm32l100c_discovery.c **** {
 154              		.loc 1 141 0
 155              		.cfi_startproc
 156              		@ args = 0, pretend = 0, frame = 0
 157              		@ frame_needed = 0, uses_anonymous_args = 0
 158              		@ link register save eliminated.
 159              	.LVL4:
 142:src/stm32l100c_discovery.c ****   GPIO_PORT[Led]->BSRRL = GPIO_PIN[Led];
 160              		.loc 1 142 0
 161 0048 044B     		ldr	r3, .L5	@ tmp115,
 162 004a 0549     		ldr	r1, .L5+4	@ tmp114,
 163 004c 03EB4003 		add	r3, r3, r0, lsl #1	@, tmp116, tmp115, Led,
 164 0050 1A89     		ldrh	r2, [r3, #8]	@ D.6636, GPIO_PIN
 165 0052 51F82030 		ldr	r3, [r1, r0, lsl #2]	@ D.6635, GPIO_PORT
 166 0056 1A83     		strh	r2, [r3, #24]	@ movhi	@ D.6636, _4->BSRRL
 167 0058 7047     		bx	lr	@
 168              	.L6:
 169 005a 00BF     		.align	2
 170              	.L5:
 171 005c 00000000 		.word	.LANCHOR0
 172 0060 00000000 		.word	.LANCHOR1
 173              		.cfi_endproc
 174              	.LFE57:
 175              		.size	STM_EVAL_LEDOn, .-STM_EVAL_LEDOn
 176              		.align	2
 177              		.global	STM_EVAL_LEDOff
 178              		.thumb
 179              		.thumb_func
 180              		.type	STM_EVAL_LEDOff, %function
 181              	STM_EVAL_LEDOff:
 182              	.LFB58:
 143:src/stm32l100c_discovery.c **** }
 144:src/stm32l100c_discovery.c **** 
 145:src/stm32l100c_discovery.c **** /**
 146:src/stm32l100c_discovery.c ****   * @brief  Turns selected LED Off.
 147:src/stm32l100c_discovery.c ****   * @param  Led: Specifies the Led to be set off. 
 148:src/stm32l100c_discovery.c ****   *   This parameter can be one of following parameters:
 149:src/stm32l100c_discovery.c ****   *     @arg LED3
ARM GAS  /tmp/cckM5Epi.s 			page 7


 150:src/stm32l100c_discovery.c ****   *     @arg LED4 
 151:src/stm32l100c_discovery.c ****   * @retval None
 152:src/stm32l100c_discovery.c ****   */
 153:src/stm32l100c_discovery.c **** void STM_EVAL_LEDOff(Led_TypeDef Led)
 154:src/stm32l100c_discovery.c **** {
 183              		.loc 1 154 0
 184              		.cfi_startproc
 185              		@ args = 0, pretend = 0, frame = 0
 186              		@ frame_needed = 0, uses_anonymous_args = 0
 187              		@ link register save eliminated.
 188              	.LVL5:
 155:src/stm32l100c_discovery.c ****   GPIO_PORT[Led]->BSRRH = GPIO_PIN[Led];
 189              		.loc 1 155 0
 190 0064 044B     		ldr	r3, .L8	@ tmp115,
 191 0066 0549     		ldr	r1, .L8+4	@ tmp114,
 192 0068 03EB4003 		add	r3, r3, r0, lsl #1	@, tmp116, tmp115, Led,
 193 006c 1A89     		ldrh	r2, [r3, #8]	@ D.6641, GPIO_PIN
 194 006e 51F82030 		ldr	r3, [r1, r0, lsl #2]	@ D.6640, GPIO_PORT
 195 0072 5A83     		strh	r2, [r3, #26]	@ movhi	@ D.6641, _4->BSRRH
 196 0074 7047     		bx	lr	@
 197              	.L9:
 198 0076 00BF     		.align	2
 199              	.L8:
 200 0078 00000000 		.word	.LANCHOR0
 201 007c 00000000 		.word	.LANCHOR1
 202              		.cfi_endproc
 203              	.LFE58:
 204              		.size	STM_EVAL_LEDOff, .-STM_EVAL_LEDOff
 205              		.align	2
 206              		.global	STM_EVAL_LEDToggle
 207              		.thumb
 208              		.thumb_func
 209              		.type	STM_EVAL_LEDToggle, %function
 210              	STM_EVAL_LEDToggle:
 211              	.LFB59:
 156:src/stm32l100c_discovery.c **** }
 157:src/stm32l100c_discovery.c **** 
 158:src/stm32l100c_discovery.c **** /**
 159:src/stm32l100c_discovery.c ****   * @brief  Toggles the selected LED.
 160:src/stm32l100c_discovery.c ****   * @param  Led: Specifies the Led to be toggled. 
 161:src/stm32l100c_discovery.c ****   *   This parameter can be one of following parameters:
 162:src/stm32l100c_discovery.c ****   *     @arg LED3
 163:src/stm32l100c_discovery.c ****   *     @arg LED4  
 164:src/stm32l100c_discovery.c ****   * @retval None
 165:src/stm32l100c_discovery.c ****   */
 166:src/stm32l100c_discovery.c **** void STM_EVAL_LEDToggle(Led_TypeDef Led)
 167:src/stm32l100c_discovery.c **** {
 212              		.loc 1 167 0
 213              		.cfi_startproc
 214              		@ args = 0, pretend = 0, frame = 0
 215              		@ frame_needed = 0, uses_anonymous_args = 0
 216              		@ link register save eliminated.
 217              	.LVL6:
 168:src/stm32l100c_discovery.c ****   GPIO_PORT[Led]->ODR ^= GPIO_PIN[Led];
 218              		.loc 1 168 0
 219 0080 054B     		ldr	r3, .L11	@ tmp116,
 220 0082 064A     		ldr	r2, .L11+4	@ tmp119,
ARM GAS  /tmp/cckM5Epi.s 			page 8


 221 0084 53F82030 		ldr	r3, [r3, r0, lsl #2]	@ D.6645, GPIO_PORT
 222 0088 02EB4000 		add	r0, r2, r0, lsl #1	@, tmp120, tmp119, Led,
 223              	.LVL7:
 224 008c 0189     		ldrh	r1, [r0, #8]	@, GPIO_PIN
 225 008e 9A8A     		ldrh	r2, [r3, #20]	@, _4->ODR
 226 0090 4A40     		eors	r2, r2, r1	@, tmp123, _4->ODR, tmp122
 227 0092 92B2     		uxth	r2, r2	@ D.6646, tmp123
 228 0094 9A82     		strh	r2, [r3, #20]	@ movhi	@ D.6646, _4->ODR
 229 0096 7047     		bx	lr	@
 230              	.L12:
 231              		.align	2
 232              	.L11:
 233 0098 00000000 		.word	.LANCHOR1
 234 009c 00000000 		.word	.LANCHOR0
 235              		.cfi_endproc
 236              	.LFE59:
 237              		.size	STM_EVAL_LEDToggle, .-STM_EVAL_LEDToggle
 238              		.align	2
 239              		.global	STM_EVAL_PBInit
 240              		.thumb
 241              		.thumb_func
 242              		.type	STM_EVAL_PBInit, %function
 243              	STM_EVAL_PBInit:
 244              	.LFB60:
 169:src/stm32l100c_discovery.c **** }
 170:src/stm32l100c_discovery.c **** 
 171:src/stm32l100c_discovery.c **** /**
 172:src/stm32l100c_discovery.c ****   * @brief  Configures Button GPIO and EXTI Line.
 173:src/stm32l100c_discovery.c ****   * @param  Button: Specifies the Button to be configured.
 174:src/stm32l100c_discovery.c ****   *   This parameter can be:
 175:src/stm32l100c_discovery.c ****   *     @arg BUTTON_USER: User Push Button      
 176:src/stm32l100c_discovery.c ****   * @param  Button_Mode: Specifies Button mode.
 177:src/stm32l100c_discovery.c ****   *   This parameter can be one of following parameters:   
 178:src/stm32l100c_discovery.c ****   *     @arg BUTTON_MODE_GPIO: Button will be used as simple IO 
 179:src/stm32l100c_discovery.c ****   *     @arg BUTTON_MODE_EXTI: Button will be connected to EXTI line with interrupt
 180:src/stm32l100c_discovery.c ****   *                            generation capability
 181:src/stm32l100c_discovery.c ****   * @retval None
 182:src/stm32l100c_discovery.c ****   */
 183:src/stm32l100c_discovery.c **** void STM_EVAL_PBInit(Button_TypeDef Button, ButtonMode_TypeDef Button_Mode)
 184:src/stm32l100c_discovery.c **** {
 245              		.loc 1 184 0
 246              		.cfi_startproc
 247              		@ args = 0, pretend = 0, frame = 24
 248              		@ frame_needed = 0, uses_anonymous_args = 0
 249              	.LVL8:
 250 00a0 70B5     		push	{r4, r5, r6, lr}	@
 251              	.LCFI2:
 252              		.cfi_def_cfa_offset 16
 253              		.cfi_offset 4, -16
 254              		.cfi_offset 5, -12
 255              		.cfi_offset 6, -8
 256              		.cfi_offset 14, -4
 257 00a2 0646     		mov	r6, r0	@ Button, Button
 185:src/stm32l100c_discovery.c ****   GPIO_InitTypeDef GPIO_InitStructure;
 186:src/stm32l100c_discovery.c ****   EXTI_InitTypeDef EXTI_InitStructure;
 187:src/stm32l100c_discovery.c ****   NVIC_InitTypeDef NVIC_InitStructure;
 188:src/stm32l100c_discovery.c **** 
ARM GAS  /tmp/cckM5Epi.s 			page 9


 189:src/stm32l100c_discovery.c ****   /* Enable the BUTTON Clock */
 190:src/stm32l100c_discovery.c ****   RCC_AHBPeriphClockCmd(BUTTON_CLK[Button], ENABLE);
 258              		.loc 1 190 0
 259 00a4 0120     		movs	r0, #1	@,
 260              	.LVL9:
 184:src/stm32l100c_discovery.c **** {
 261              		.loc 1 184 0
 262 00a6 86B0     		sub	sp, sp, #24	@,,
 263              	.LCFI3:
 264              		.cfi_def_cfa_offset 40
 184:src/stm32l100c_discovery.c **** {
 265              		.loc 1 184 0
 266 00a8 0D46     		mov	r5, r1	@ Button_Mode, Button_Mode
 267              		.loc 1 190 0
 268 00aa 0146     		mov	r1, r0	@,
 269              	.LVL10:
 270 00ac FFF7FEFF 		bl	RCC_AHBPeriphClockCmd	@
 271              	.LVL11:
 191:src/stm32l100c_discovery.c ****   RCC_APB2PeriphClockCmd(RCC_APB2Periph_SYSCFG, ENABLE);
 272              		.loc 1 191 0
 273 00b0 0120     		movs	r0, #1	@,
 274 00b2 0146     		mov	r1, r0	@,
 275 00b4 FFF7FEFF 		bl	RCC_APB2PeriphClockCmd	@
 276              	.LVL12:
 192:src/stm32l100c_discovery.c **** 
 193:src/stm32l100c_discovery.c ****   /* Configure Button pin as input */
 194:src/stm32l100c_discovery.c ****   GPIO_InitStructure.GPIO_Mode = GPIO_Mode_IN;
 195:src/stm32l100c_discovery.c ****   GPIO_InitStructure.GPIO_PuPd = GPIO_PuPd_NOPULL;
 196:src/stm32l100c_discovery.c ****   GPIO_InitStructure.GPIO_Pin = BUTTON_PIN[Button];
 197:src/stm32l100c_discovery.c ****   GPIO_Init(BUTTON_PORT[Button], &GPIO_InitStructure);
 277              		.loc 1 197 0
 278 00b8 1A4A     		ldr	r2, .L19	@ tmp120,
 196:src/stm32l100c_discovery.c ****   GPIO_InitStructure.GPIO_Pin = BUTTON_PIN[Button];
 279              		.loc 1 196 0
 280 00ba 06AB     		add	r3, sp, #24	@ tmp124,,
 281 00bc 0121     		movs	r1, #1	@ tmp119,
 282              		.loc 1 197 0
 283 00be 02EB8602 		add	r2, r2, r6, lsl #2	@, tmp121, tmp120, Button,
 196:src/stm32l100c_discovery.c ****   GPIO_InitStructure.GPIO_Pin = BUTTON_PIN[Button];
 284              		.loc 1 196 0
 285 00c2 43F8081D 		str	r1, [r3, #-8]!	@ tmp119, GPIO_InitStructure.GPIO_Pin
 194:src/stm32l100c_discovery.c ****   GPIO_InitStructure.GPIO_Mode = GPIO_Mode_IN;
 286              		.loc 1 194 0
 287 00c6 0024     		movs	r4, #0	@ tmp115,
 288              		.loc 1 197 0
 289 00c8 9068     		ldr	r0, [r2, #8]	@, BUTTON_PORT
 290 00ca 1946     		mov	r1, r3	@, tmp124
 194:src/stm32l100c_discovery.c ****   GPIO_InitStructure.GPIO_Mode = GPIO_Mode_IN;
 291              		.loc 1 194 0
 292 00cc 8DF81440 		strb	r4, [sp, #20]	@ tmp115, GPIO_InitStructure.GPIO_Mode
 195:src/stm32l100c_discovery.c ****   GPIO_InitStructure.GPIO_PuPd = GPIO_PuPd_NOPULL;
 293              		.loc 1 195 0
 294 00d0 8DF81740 		strb	r4, [sp, #23]	@ tmp115, GPIO_InitStructure.GPIO_PuPd
 295              		.loc 1 197 0
 296 00d4 FFF7FEFF 		bl	GPIO_Init	@
 297              	.LVL13:
 198:src/stm32l100c_discovery.c **** 
ARM GAS  /tmp/cckM5Epi.s 			page 10


 199:src/stm32l100c_discovery.c ****   if (Button_Mode == BUTTON_MODE_EXTI)
 298              		.loc 1 199 0
 299 00d8 012D     		cmp	r5, #1	@ Button_Mode,
 300 00da 01D0     		beq	.L18	@,
 200:src/stm32l100c_discovery.c ****   {
 201:src/stm32l100c_discovery.c ****     /* Connect Button EXTI Line to Button GPIO Pin */
 202:src/stm32l100c_discovery.c ****     SYSCFG_EXTILineConfig(BUTTON_PORT_SOURCE[Button], BUTTON_PIN_SOURCE[Button]);
 203:src/stm32l100c_discovery.c **** 
 204:src/stm32l100c_discovery.c ****     /* Configure Button EXTI line */
 205:src/stm32l100c_discovery.c ****     EXTI_InitStructure.EXTI_Line = BUTTON_EXTI_LINE[Button];
 206:src/stm32l100c_discovery.c ****     EXTI_InitStructure.EXTI_Mode = EXTI_Mode_Interrupt;
 207:src/stm32l100c_discovery.c ****     if (Button != BUTTON_USER)
 208:src/stm32l100c_discovery.c ****     {
 209:src/stm32l100c_discovery.c ****       EXTI_InitStructure.EXTI_Trigger = EXTI_Trigger_Rising;
 210:src/stm32l100c_discovery.c ****     }
 211:src/stm32l100c_discovery.c ****     else
 212:src/stm32l100c_discovery.c ****     {
 213:src/stm32l100c_discovery.c ****       EXTI_InitStructure.EXTI_Trigger = EXTI_Trigger_Falling;    
 214:src/stm32l100c_discovery.c ****     }
 215:src/stm32l100c_discovery.c ****     EXTI_InitStructure.EXTI_LineCmd = ENABLE;
 216:src/stm32l100c_discovery.c ****     EXTI_Init(&EXTI_InitStructure);
 217:src/stm32l100c_discovery.c **** 
 218:src/stm32l100c_discovery.c ****     /* Enable and set Button EXTI Interrupt to the lowest priority */
 219:src/stm32l100c_discovery.c ****     NVIC_InitStructure.NVIC_IRQChannel = BUTTON_IRQn[Button];
 220:src/stm32l100c_discovery.c ****     NVIC_InitStructure.NVIC_IRQChannelPreemptionPriority = 0x0F;
 221:src/stm32l100c_discovery.c ****     NVIC_InitStructure.NVIC_IRQChannelSubPriority = 0x0F;
 222:src/stm32l100c_discovery.c ****     NVIC_InitStructure.NVIC_IRQChannelCmd = ENABLE;
 223:src/stm32l100c_discovery.c **** 
 224:src/stm32l100c_discovery.c ****     NVIC_Init(&NVIC_InitStructure); 
 225:src/stm32l100c_discovery.c ****   }
 226:src/stm32l100c_discovery.c **** }
 301              		.loc 1 226 0
 302 00dc 06B0     		add	sp, sp, #24	@,,
 303              		@ sp needed	@
 304 00de 70BD     		pop	{r4, r5, r6, pc}	@
 305              	.L18:
 202:src/stm32l100c_discovery.c ****     SYSCFG_EXTILineConfig(BUTTON_PORT_SOURCE[Button], BUTTON_PIN_SOURCE[Button]);
 306              		.loc 1 202 0
 307 00e0 2146     		mov	r1, r4	@, tmp115
 308 00e2 2046     		mov	r0, r4	@, tmp115
 309 00e4 FFF7FEFF 		bl	SYSCFG_EXTILineConfig	@
 310              	.LVL14:
 209:src/stm32l100c_discovery.c ****       EXTI_InitStructure.EXTI_Trigger = EXTI_Trigger_Rising;
 311              		.loc 1 209 0
 312 00e8 A642     		cmp	r6, r4	@ Button,
 313 00ea 0CBF     		ite	eq	@
 314 00ec 0C23     		moveq	r3, #12	@, D.6651,
 315 00ee 0823     		movne	r3, #8	@, D.6651,
 216:src/stm32l100c_discovery.c ****     EXTI_Init(&EXTI_InitStructure);
 316              		.loc 1 216 0
 317 00f0 02A8     		add	r0, sp, #8	@,,
 318 00f2 8DF80D30 		strb	r3, [sp, #13]	@ D.6651, EXTI_InitStructure.EXTI_Trigger
 205:src/stm32l100c_discovery.c ****     EXTI_InitStructure.EXTI_Line = BUTTON_EXTI_LINE[Button];
 319              		.loc 1 205 0
 320 00f6 0295     		str	r5, [sp, #8]	@ Button_Mode, EXTI_InitStructure.EXTI_Line
 206:src/stm32l100c_discovery.c ****     EXTI_InitStructure.EXTI_Mode = EXTI_Mode_Interrupt;
 321              		.loc 1 206 0
ARM GAS  /tmp/cckM5Epi.s 			page 11


 322 00f8 8DF80C40 		strb	r4, [sp, #12]	@ tmp115, EXTI_InitStructure.EXTI_Mode
 215:src/stm32l100c_discovery.c ****     EXTI_InitStructure.EXTI_LineCmd = ENABLE;
 323              		.loc 1 215 0
 324 00fc 8DF80E50 		strb	r5, [sp, #14]	@ Button_Mode, EXTI_InitStructure.EXTI_LineCmd
 216:src/stm32l100c_discovery.c ****     EXTI_Init(&EXTI_InitStructure);
 325              		.loc 1 216 0
 326 0100 FFF7FEFF 		bl	EXTI_Init	@
 327              	.LVL15:
 220:src/stm32l100c_discovery.c ****     NVIC_InitStructure.NVIC_IRQChannelPreemptionPriority = 0x0F;
 328              		.loc 1 220 0
 329 0104 0F23     		movs	r3, #15	@ tmp134,
 219:src/stm32l100c_discovery.c ****     NVIC_InitStructure.NVIC_IRQChannel = BUTTON_IRQn[Button];
 330              		.loc 1 219 0
 331 0106 0622     		movs	r2, #6	@ tmp132,
 224:src/stm32l100c_discovery.c ****     NVIC_Init(&NVIC_InitStructure); 
 332              		.loc 1 224 0
 333 0108 01A8     		add	r0, sp, #4	@,,
 222:src/stm32l100c_discovery.c ****     NVIC_InitStructure.NVIC_IRQChannelCmd = ENABLE;
 334              		.loc 1 222 0
 335 010a 8DF80750 		strb	r5, [sp, #7]	@ Button_Mode, NVIC_InitStructure.NVIC_IRQChannelCmd
 219:src/stm32l100c_discovery.c ****     NVIC_InitStructure.NVIC_IRQChannel = BUTTON_IRQn[Button];
 336              		.loc 1 219 0
 337 010e 8DF80420 		strb	r2, [sp, #4]	@ tmp132, NVIC_InitStructure.NVIC_IRQChannel
 220:src/stm32l100c_discovery.c ****     NVIC_InitStructure.NVIC_IRQChannelPreemptionPriority = 0x0F;
 338              		.loc 1 220 0
 339 0112 8DF80530 		strb	r3, [sp, #5]	@ tmp134, NVIC_InitStructure.NVIC_IRQChannelPreemptionPriority
 221:src/stm32l100c_discovery.c ****     NVIC_InitStructure.NVIC_IRQChannelSubPriority = 0x0F;
 340              		.loc 1 221 0
 341 0116 8DF80630 		strb	r3, [sp, #6]	@ tmp134, NVIC_InitStructure.NVIC_IRQChannelSubPriority
 224:src/stm32l100c_discovery.c ****     NVIC_Init(&NVIC_InitStructure); 
 342              		.loc 1 224 0
 343 011a FFF7FEFF 		bl	NVIC_Init	@
 344              	.LVL16:
 345              		.loc 1 226 0
 346 011e 06B0     		add	sp, sp, #24	@,,
 347              		@ sp needed	@
 348 0120 70BD     		pop	{r4, r5, r6, pc}	@
 349              	.L20:
 350 0122 00BF     		.align	2
 351              	.L19:
 352 0124 00000000 		.word	.LANCHOR1
 353              		.cfi_endproc
 354              	.LFE60:
 355              		.size	STM_EVAL_PBInit, .-STM_EVAL_PBInit
 356              		.align	2
 357              		.global	STM_EVAL_PBGetState
 358              		.thumb
 359              		.thumb_func
 360              		.type	STM_EVAL_PBGetState, %function
 361              	STM_EVAL_PBGetState:
 362              	.LFB61:
 227:src/stm32l100c_discovery.c **** 
 228:src/stm32l100c_discovery.c **** /**
 229:src/stm32l100c_discovery.c ****   * @brief  Returns the selected Button state.
 230:src/stm32l100c_discovery.c ****   * @param  Button: Specifies the Button to be checked.
 231:src/stm32l100c_discovery.c ****   *   This parameter can be one of following parameters:
 232:src/stm32l100c_discovery.c ****   *     @arg BUTTON_USER: User Push Button    
ARM GAS  /tmp/cckM5Epi.s 			page 12


 233:src/stm32l100c_discovery.c ****   * @retval The Button GPIO pin value.
 234:src/stm32l100c_discovery.c ****   */
 235:src/stm32l100c_discovery.c **** uint32_t STM_EVAL_PBGetState(Button_TypeDef Button)
 236:src/stm32l100c_discovery.c **** {
 363              		.loc 1 236 0
 364              		.cfi_startproc
 365              		@ args = 0, pretend = 0, frame = 0
 366              		@ frame_needed = 0, uses_anonymous_args = 0
 367              	.LVL17:
 368 0128 08B5     		push	{r3, lr}	@
 369              	.LCFI4:
 370              		.cfi_def_cfa_offset 8
 371              		.cfi_offset 3, -8
 372              		.cfi_offset 14, -4
 237:src/stm32l100c_discovery.c ****   /* There is no Wakeup button on STM32f0-Discovery Kit */
 238:src/stm32l100c_discovery.c ****   return GPIO_ReadInputDataBit(BUTTON_PORT[Button], BUTTON_PIN[Button]);
 373              		.loc 1 238 0
 374 012a 044B     		ldr	r3, .L22	@ tmp116,
 375 012c 0121     		movs	r1, #1	@,
 376 012e 03EB8000 		add	r0, r3, r0, lsl #2	@, tmp117, tmp116, Button,
 377              	.LVL18:
 378 0132 8068     		ldr	r0, [r0, #8]	@, BUTTON_PORT
 379 0134 FFF7FEFF 		bl	GPIO_ReadInputDataBit	@
 380              	.LVL19:
 239:src/stm32l100c_discovery.c **** }
 381              		.loc 1 239 0
 382 0138 08BD     		pop	{r3, pc}	@
 383              	.L23:
 384 013a 00BF     		.align	2
 385              	.L22:
 386 013c 00000000 		.word	.LANCHOR1
 387              		.cfi_endproc
 388              	.LFE61:
 389              		.size	STM_EVAL_PBGetState, .-STM_EVAL_PBGetState
 390              		.global	BUTTON_IRQn
 391              		.global	BUTTON_PIN_SOURCE
 392              		.global	BUTTON_PORT_SOURCE
 393              		.global	BUTTON_EXTI_LINE
 394              		.global	BUTTON_CLK
 395              		.global	BUTTON_PIN
 396              		.global	BUTTON_PORT
 397              		.global	GPIO_CLK
 398              		.global	GPIO_PIN
 399              		.global	GPIO_PORT
 400              		.section	.rodata
 401              		.align	2
 402              		.set	.LANCHOR0,. + 0
 403              		.type	GPIO_CLK, %object
 404              		.size	GPIO_CLK, 8
 405              	GPIO_CLK:
 406 0000 04000000 		.word	4
 407 0004 04000000 		.word	4
 408              		.type	GPIO_PIN, %object
 409              		.size	GPIO_PIN, 4
 410              	GPIO_PIN:
 411 0008 0002     		.short	512
 412 000a 0001     		.short	256
ARM GAS  /tmp/cckM5Epi.s 			page 13


 413              		.type	BUTTON_IRQn, %object
 414              		.size	BUTTON_IRQn, 2
 415              	BUTTON_IRQn:
 416 000c 0600     		.short	6
 417 000e 0000     		.space	2
 418              		.type	BUTTON_PIN_SOURCE, %object
 419              		.size	BUTTON_PIN_SOURCE, 2
 420              	BUTTON_PIN_SOURCE:
 421 0010 0000     		.space	2
 422 0012 0000     		.space	2
 423              		.type	BUTTON_PORT_SOURCE, %object
 424              		.size	BUTTON_PORT_SOURCE, 2
 425              	BUTTON_PORT_SOURCE:
 426 0014 0000     		.space	2
 427 0016 0000     		.space	2
 428              		.type	BUTTON_EXTI_LINE, %object
 429              		.size	BUTTON_EXTI_LINE, 2
 430              	BUTTON_EXTI_LINE:
 431 0018 0100     		.short	1
 432 001a 0000     		.space	2
 433              		.type	BUTTON_CLK, %object
 434              		.size	BUTTON_CLK, 4
 435              	BUTTON_CLK:
 436 001c 01000000 		.word	1
 437              		.type	BUTTON_PIN, %object
 438              		.size	BUTTON_PIN, 2
 439              	BUTTON_PIN:
 440 0020 0100     		.short	1
 441 0022 0000     		.data
 442              		.align	2
 443              		.set	.LANCHOR1,. + 0
 444              		.type	GPIO_PORT, %object
 445              		.size	GPIO_PORT, 8
 446              	GPIO_PORT:
 447 0000 00080240 		.word	1073874944
 448 0004 00080240 		.word	1073874944
 449              		.type	BUTTON_PORT, %object
 450              		.size	BUTTON_PORT, 4
 451              	BUTTON_PORT:
 452 0008 00000240 		.word	1073872896
 453              		.text
 454              	.Letext0:
 455              		.file 2 "/home/zbanks/gcc-arm-none-eabi/arm-none-eabi/include/stdint.h"
 456              		.file 3 "./inc/stm32l1xx.h"
 457              		.file 4 "/home/zbanks//STM32L1xx_StdPeriph_Lib_V1.2.0/Libraries/STM32L1xx_StdPeriph_Driver/inc/stm
 458              		.file 5 "/home/zbanks//STM32L1xx_StdPeriph_Lib_V1.2.0/Libraries/STM32L1xx_StdPeriph_Driver/inc/stm
 459              		.file 6 "/home/zbanks//STM32L1xx_StdPeriph_Lib_V1.2.0/Libraries/STM32L1xx_StdPeriph_Driver/inc/mis
 460              		.file 7 "./inc/stm32l100c_discovery.h"
 461              		.file 8 "./inc/core_cm3.h"
 462              		.file 9 "/home/zbanks//STM32L1xx_StdPeriph_Lib_V1.2.0/Libraries/STM32L1xx_StdPeriph_Driver/inc/stm
 463              		.file 10 "/home/zbanks//STM32L1xx_StdPeriph_Lib_V1.2.0/Libraries/STM32L1xx_StdPeriph_Driver/inc/st
 464              		.section	.debug_info,"",%progbits
 465              	.Ldebug_info0:
 466 0000 97090000 		.4byte	0x997
 467 0004 0200     		.2byte	0x2
 468 0006 00000000 		.4byte	.Ldebug_abbrev0
 469 000a 04       		.byte	0x4
ARM GAS  /tmp/cckM5Epi.s 			page 14


 470 000b 01       		.uleb128 0x1
 471 000c 10000000 		.4byte	.LASF170
 472 0010 01       		.byte	0x1
 473 0011 16080000 		.4byte	.LASF171
 474 0015 66010000 		.4byte	.LASF172
 475 0019 00000000 		.4byte	.Ltext0
 476 001d 40010000 		.4byte	.Letext0
 477 0021 00000000 		.4byte	.Ldebug_line0
 478 0025 02       		.uleb128 0x2
 479 0026 C3040000 		.4byte	.LASF173
 480 002a 01       		.byte	0x1
 481 002b 03       		.byte	0x3
 482 002c AB       		.byte	0xab
 483 002d B8010000 		.4byte	0x1b8
 484 0031 03       		.uleb128 0x3
 485 0032 EE070000 		.4byte	.LASF0
 486 0036 72       		.sleb128 -14
 487 0037 03       		.uleb128 0x3
 488 0038 B8030000 		.4byte	.LASF1
 489 003c 74       		.sleb128 -12
 490 003d 03       		.uleb128 0x3
 491 003e 55030000 		.4byte	.LASF2
 492 0042 75       		.sleb128 -11
 493 0043 03       		.uleb128 0x3
 494 0044 46070000 		.4byte	.LASF3
 495 0048 76       		.sleb128 -10
 496 0049 03       		.uleb128 0x3
 497 004a FE090000 		.4byte	.LASF4
 498 004e 7B       		.sleb128 -5
 499 004f 03       		.uleb128 0x3
 500 0050 92080000 		.4byte	.LASF5
 501 0054 7C       		.sleb128 -4
 502 0055 03       		.uleb128 0x3
 503 0056 0E030000 		.4byte	.LASF6
 504 005a 7E       		.sleb128 -2
 505 005b 03       		.uleb128 0x3
 506 005c 86040000 		.4byte	.LASF7
 507 0060 7F       		.sleb128 -1
 508 0061 03       		.uleb128 0x3
 509 0062 0C020000 		.4byte	.LASF8
 510 0066 00       		.sleb128 0
 511 0067 03       		.uleb128 0x3
 512 0068 B3000000 		.4byte	.LASF9
 513 006c 01       		.sleb128 1
 514 006d 03       		.uleb128 0x3
 515 006e D8090000 		.4byte	.LASF10
 516 0072 02       		.sleb128 2
 517 0073 03       		.uleb128 0x3
 518 0074 FE010000 		.4byte	.LASF11
 519 0078 03       		.sleb128 3
 520 0079 03       		.uleb128 0x3
 521 007a 0B070000 		.4byte	.LASF12
 522 007e 04       		.sleb128 4
 523 007f 03       		.uleb128 0x3
 524 0080 47090000 		.4byte	.LASF13
 525 0084 05       		.sleb128 5
 526 0085 03       		.uleb128 0x3
ARM GAS  /tmp/cckM5Epi.s 			page 15


 527 0086 DB080000 		.4byte	.LASF14
 528 008a 06       		.sleb128 6
 529 008b 03       		.uleb128 0x3
 530 008c 5F090000 		.4byte	.LASF15
 531 0090 07       		.sleb128 7
 532 0091 03       		.uleb128 0x3
 533 0092 E5060000 		.4byte	.LASF16
 534 0096 08       		.sleb128 8
 535 0097 03       		.uleb128 0x3
 536 0098 D1020000 		.4byte	.LASF17
 537 009c 09       		.sleb128 9
 538 009d 03       		.uleb128 0x3
 539 009e 82060000 		.4byte	.LASF18
 540 00a2 0A       		.sleb128 10
 541 00a3 03       		.uleb128 0x3
 542 00a4 DD050000 		.4byte	.LASF19
 543 00a8 0B       		.sleb128 11
 544 00a9 03       		.uleb128 0x3
 545 00aa C8040000 		.4byte	.LASF20
 546 00ae 0C       		.sleb128 12
 547 00af 03       		.uleb128 0x3
 548 00b0 D2060000 		.4byte	.LASF21
 549 00b4 0D       		.sleb128 13
 550 00b5 03       		.uleb128 0x3
 551 00b6 2C030000 		.4byte	.LASF22
 552 00ba 0E       		.sleb128 14
 553 00bb 03       		.uleb128 0x3
 554 00bc F2030000 		.4byte	.LASF23
 555 00c0 0F       		.sleb128 15
 556 00c1 03       		.uleb128 0x3
 557 00c2 BC000000 		.4byte	.LASF24
 558 00c6 10       		.sleb128 16
 559 00c7 03       		.uleb128 0x3
 560 00c8 7A090000 		.4byte	.LASF25
 561 00cc 11       		.sleb128 17
 562 00cd 03       		.uleb128 0x3
 563 00ce A4050000 		.4byte	.LASF26
 564 00d2 12       		.sleb128 18
 565 00d3 03       		.uleb128 0x3
 566 00d4 63030000 		.4byte	.LASF27
 567 00d8 13       		.sleb128 19
 568 00d9 03       		.uleb128 0x3
 569 00da 62080000 		.4byte	.LASF28
 570 00de 14       		.sleb128 20
 571 00df 03       		.uleb128 0x3
 572 00e0 4C080000 		.4byte	.LASF29
 573 00e4 15       		.sleb128 21
 574 00e5 03       		.uleb128 0x3
 575 00e6 E8000000 		.4byte	.LASF30
 576 00ea 16       		.sleb128 22
 577 00eb 03       		.uleb128 0x3
 578 00ec 8D020000 		.4byte	.LASF31
 579 00f0 17       		.sleb128 23
 580 00f1 03       		.uleb128 0x3
 581 00f2 A4080000 		.4byte	.LASF32
 582 00f6 18       		.sleb128 24
 583 00f7 03       		.uleb128 0x3
ARM GAS  /tmp/cckM5Epi.s 			page 16


 584 00f8 A4030000 		.4byte	.LASF33
 585 00fc 19       		.sleb128 25
 586 00fd 03       		.uleb128 0x3
 587 00fe E5020000 		.4byte	.LASF34
 588 0102 1A       		.sleb128 26
 589 0103 03       		.uleb128 0x3
 590 0104 B2060000 		.4byte	.LASF35
 591 0108 1B       		.sleb128 27
 592 0109 03       		.uleb128 0x3
 593 010a D1080000 		.4byte	.LASF36
 594 010e 1C       		.sleb128 28
 595 010f 03       		.uleb128 0x3
 596 0110 F4090000 		.4byte	.LASF37
 597 0114 1D       		.sleb128 29
 598 0115 03       		.uleb128 0x3
 599 0116 56070000 		.4byte	.LASF38
 600 011a 1E       		.sleb128 30
 601 011b 03       		.uleb128 0x3
 602 011c FF000000 		.4byte	.LASF39
 603 0120 1F       		.sleb128 31
 604 0121 03       		.uleb128 0x3
 605 0122 C1090000 		.4byte	.LASF40
 606 0126 20       		.sleb128 32
 607 0127 03       		.uleb128 0x3
 608 0128 63020000 		.4byte	.LASF41
 609 012c 21       		.sleb128 33
 610 012d 03       		.uleb128 0x3
 611 012e DD010000 		.4byte	.LASF42
 612 0132 22       		.sleb128 34
 613 0133 03       		.uleb128 0x3
 614 0134 4A040000 		.4byte	.LASF43
 615 0138 23       		.sleb128 35
 616 0139 03       		.uleb128 0x3
 617 013a 5D050000 		.4byte	.LASF44
 618 013e 24       		.sleb128 36
 619 013f 03       		.uleb128 0x3
 620 0140 36060000 		.4byte	.LASF45
 621 0144 25       		.sleb128 37
 622 0145 03       		.uleb128 0x3
 623 0146 3A070000 		.4byte	.LASF46
 624 014a 26       		.sleb128 38
 625 014b 03       		.uleb128 0x3
 626 014c B7080000 		.4byte	.LASF47
 627 0150 27       		.sleb128 39
 628 0151 03       		.uleb128 0x3
 629 0152 18040000 		.4byte	.LASF48
 630 0156 28       		.sleb128 40
 631 0157 03       		.uleb128 0x3
 632 0158 C3010000 		.4byte	.LASF49
 633 015c 29       		.sleb128 41
 634 015d 03       		.uleb128 0x3
 635 015e 93050000 		.4byte	.LASF50
 636 0162 2A       		.sleb128 42
 637 0163 03       		.uleb128 0x3
 638 0164 78060000 		.4byte	.LASF51
 639 0168 2B       		.sleb128 43
 640 0169 03       		.uleb128 0x3
ARM GAS  /tmp/cckM5Epi.s 			page 17


 641 016a CE070000 		.4byte	.LASF52
 642 016e 2C       		.sleb128 44
 643 016f 03       		.uleb128 0x3
 644 0170 16020000 		.4byte	.LASF53
 645 0174 2D       		.sleb128 45
 646 0175 03       		.uleb128 0x3
 647 0176 33050000 		.4byte	.LASF54
 648 017a 2E       		.sleb128 46
 649 017b 03       		.uleb128 0x3
 650 017c CE090000 		.4byte	.LASF55
 651 0180 2F       		.sleb128 47
 652 0181 03       		.uleb128 0x3
 653 0182 03030000 		.4byte	.LASF56
 654 0186 30       		.sleb128 48
 655 0187 03       		.uleb128 0x3
 656 0188 C7060000 		.4byte	.LASF57
 657 018c 31       		.sleb128 49
 658 018d 03       		.uleb128 0x3
 659 018e A3010000 		.4byte	.LASF58
 660 0192 32       		.sleb128 50
 661 0193 03       		.uleb128 0x3
 662 0194 F9040000 		.4byte	.LASF59
 663 0198 33       		.sleb128 51
 664 0199 03       		.uleb128 0x3
 665 019a 42060000 		.4byte	.LASF60
 666 019e 34       		.sleb128 52
 667 019f 03       		.uleb128 0x3
 668 01a0 83070000 		.4byte	.LASF61
 669 01a4 35       		.sleb128 53
 670 01a5 03       		.uleb128 0x3
 671 01a6 47020000 		.4byte	.LASF62
 672 01aa 36       		.sleb128 54
 673 01ab 03       		.uleb128 0x3
 674 01ac DC020000 		.4byte	.LASF63
 675 01b0 37       		.sleb128 55
 676 01b1 03       		.uleb128 0x3
 677 01b2 A4040000 		.4byte	.LASF64
 678 01b6 38       		.sleb128 56
 679 01b7 00       		.byte	0
 680 01b8 04       		.uleb128 0x4
 681 01b9 01       		.byte	0x1
 682 01ba 06       		.byte	0x6
 683 01bb 2E020000 		.4byte	.LASF65
 684 01bf 05       		.uleb128 0x5
 685 01c0 27090000 		.4byte	.LASF68
 686 01c4 02       		.byte	0x2
 687 01c5 2A       		.byte	0x2a
 688 01c6 CA010000 		.4byte	0x1ca
 689 01ca 04       		.uleb128 0x4
 690 01cb 01       		.byte	0x1
 691 01cc 08       		.byte	0x8
 692 01cd 5D060000 		.4byte	.LASF66
 693 01d1 04       		.uleb128 0x4
 694 01d2 02       		.byte	0x2
 695 01d3 05       		.byte	0x5
 696 01d4 00000000 		.4byte	.LASF67
 697 01d8 05       		.uleb128 0x5
ARM GAS  /tmp/cckM5Epi.s 			page 18


 698 01d9 B7020000 		.4byte	.LASF69
 699 01dd 02       		.byte	0x2
 700 01de 36       		.byte	0x36
 701 01df E3010000 		.4byte	0x1e3
 702 01e3 04       		.uleb128 0x4
 703 01e4 02       		.byte	0x2
 704 01e5 07       		.byte	0x7
 705 01e6 05040000 		.4byte	.LASF70
 706 01ea 05       		.uleb128 0x5
 707 01eb 55060000 		.4byte	.LASF71
 708 01ef 02       		.byte	0x2
 709 01f0 4F       		.byte	0x4f
 710 01f1 F5010000 		.4byte	0x1f5
 711 01f5 04       		.uleb128 0x4
 712 01f6 04       		.byte	0x4
 713 01f7 05       		.byte	0x5
 714 01f8 5A020000 		.4byte	.LASF72
 715 01fc 05       		.uleb128 0x5
 716 01fd 16070000 		.4byte	.LASF73
 717 0201 02       		.byte	0x2
 718 0202 50       		.byte	0x50
 719 0203 07020000 		.4byte	0x207
 720 0207 04       		.uleb128 0x4
 721 0208 04       		.byte	0x4
 722 0209 07       		.byte	0x7
 723 020a CE030000 		.4byte	.LASF74
 724 020e 04       		.uleb128 0x4
 725 020f 08       		.byte	0x8
 726 0210 05       		.byte	0x5
 727 0211 20020000 		.4byte	.LASF75
 728 0215 04       		.uleb128 0x4
 729 0216 08       		.byte	0x8
 730 0217 07       		.byte	0x7
 731 0218 8C010000 		.4byte	.LASF76
 732 021c 06       		.uleb128 0x6
 733 021d 04       		.byte	0x4
 734 021e 05       		.byte	0x5
 735 021f 696E7400 		.ascii	"int\000"
 736 0223 04       		.uleb128 0x4
 737 0224 04       		.byte	0x4
 738 0225 07       		.byte	0x7
 739 0226 AD070000 		.4byte	.LASF77
 740 022a 04       		.uleb128 0x4
 741 022b 04       		.byte	0x4
 742 022c 07       		.byte	0x7
 743 022d DB040000 		.4byte	.LASF78
 744 0231 07       		.uleb128 0x7
 745 0232 FC010000 		.4byte	0x1fc
 746 0236 08       		.uleb128 0x8
 747 0237 FC010000 		.4byte	0x1fc
 748 023b 46020000 		.4byte	0x246
 749 023f 09       		.uleb128 0x9
 750 0240 2A020000 		.4byte	0x22a
 751 0244 01       		.byte	0x1
 752 0245 00       		.byte	0
 753 0246 08       		.uleb128 0x8
 754 0247 FC010000 		.4byte	0x1fc
ARM GAS  /tmp/cckM5Epi.s 			page 19


 755 024b 56020000 		.4byte	0x256
 756 024f 09       		.uleb128 0x9
 757 0250 2A020000 		.4byte	0x22a
 758 0254 00       		.byte	0
 759 0255 00       		.byte	0
 760 0256 07       		.uleb128 0x7
 761 0257 D8010000 		.4byte	0x1d8
 762 025b 0A       		.uleb128 0xa
 763 025c 01       		.byte	0x1
 764 025d 03       		.byte	0x3
 765 025e 1401     		.2byte	0x114
 766 0260 71020000 		.4byte	0x271
 767 0264 03       		.uleb128 0x3
 768 0265 F0060000 		.4byte	.LASF79
 769 0269 00       		.sleb128 0
 770 026a 03       		.uleb128 0x3
 771 026b 9A020000 		.4byte	.LASF80
 772 026f 01       		.sleb128 1
 773 0270 00       		.byte	0
 774 0271 0B       		.uleb128 0xb
 775 0272 81030000 		.4byte	.LASF81
 776 0276 03       		.byte	0x3
 777 0277 1401     		.2byte	0x114
 778 0279 5B020000 		.4byte	0x25b
 779 027d 0C       		.uleb128 0xc
 780 027e 2C       		.byte	0x2c
 781 027f 03       		.byte	0x3
 782 0280 2102     		.2byte	0x221
 783 0282 68030000 		.4byte	0x368
 784 0286 0D       		.uleb128 0xd
 785 0287 86010000 		.4byte	.LASF82
 786 028b 03       		.byte	0x3
 787 028c 2302     		.2byte	0x223
 788 028e 31020000 		.4byte	0x231
 789 0292 02       		.byte	0x2
 790 0293 23       		.byte	0x23
 791 0294 00       		.uleb128 0
 792 0295 0D       		.uleb128 0xd
 793 0296 2B010000 		.4byte	.LASF83
 794 029a 03       		.byte	0x3
 795 029b 2402     		.2byte	0x224
 796 029d 56020000 		.4byte	0x256
 797 02a1 02       		.byte	0x2
 798 02a2 23       		.byte	0x23
 799 02a3 04       		.uleb128 0x4
 800 02a4 0D       		.uleb128 0xd
 801 02a5 0E060000 		.4byte	.LASF84
 802 02a9 03       		.byte	0x3
 803 02aa 2502     		.2byte	0x225
 804 02ac D8010000 		.4byte	0x1d8
 805 02b0 02       		.byte	0x2
 806 02b1 23       		.byte	0x23
 807 02b2 06       		.uleb128 0x6
 808 02b3 0D       		.uleb128 0xd
 809 02b4 8B050000 		.4byte	.LASF85
 810 02b8 03       		.byte	0x3
 811 02b9 2602     		.2byte	0x226
ARM GAS  /tmp/cckM5Epi.s 			page 20


 812 02bb 31020000 		.4byte	0x231
 813 02bf 02       		.byte	0x2
 814 02c0 23       		.byte	0x23
 815 02c1 08       		.uleb128 0x8
 816 02c2 0D       		.uleb128 0xd
 817 02c3 0A000000 		.4byte	.LASF86
 818 02c7 03       		.byte	0x3
 819 02c8 2702     		.2byte	0x227
 820 02ca 31020000 		.4byte	0x231
 821 02ce 02       		.byte	0x2
 822 02cf 23       		.byte	0x23
 823 02d0 0C       		.uleb128 0xc
 824 02d1 0E       		.uleb128 0xe
 825 02d2 49445200 		.ascii	"IDR\000"
 826 02d6 03       		.byte	0x3
 827 02d7 2802     		.2byte	0x228
 828 02d9 56020000 		.4byte	0x256
 829 02dd 02       		.byte	0x2
 830 02de 23       		.byte	0x23
 831 02df 10       		.uleb128 0x10
 832 02e0 0D       		.uleb128 0xd
 833 02e1 18060000 		.4byte	.LASF87
 834 02e5 03       		.byte	0x3
 835 02e6 2902     		.2byte	0x229
 836 02e8 D8010000 		.4byte	0x1d8
 837 02ec 02       		.byte	0x2
 838 02ed 23       		.byte	0x23
 839 02ee 12       		.uleb128 0x12
 840 02ef 0E       		.uleb128 0xe
 841 02f0 4F445200 		.ascii	"ODR\000"
 842 02f4 03       		.byte	0x3
 843 02f5 2A02     		.2byte	0x22a
 844 02f7 56020000 		.4byte	0x256
 845 02fb 02       		.byte	0x2
 846 02fc 23       		.byte	0x23
 847 02fd 14       		.uleb128 0x14
 848 02fe 0D       		.uleb128 0xd
 849 02ff 22060000 		.4byte	.LASF88
 850 0303 03       		.byte	0x3
 851 0304 2B02     		.2byte	0x22b
 852 0306 D8010000 		.4byte	0x1d8
 853 030a 02       		.byte	0x2
 854 030b 23       		.byte	0x23
 855 030c 16       		.uleb128 0x16
 856 030d 0D       		.uleb128 0xd
 857 030e F9080000 		.4byte	.LASF89
 858 0312 03       		.byte	0x3
 859 0313 2C02     		.2byte	0x22c
 860 0315 56020000 		.4byte	0x256
 861 0319 02       		.byte	0x2
 862 031a 23       		.byte	0x23
 863 031b 18       		.uleb128 0x18
 864 031c 0D       		.uleb128 0xd
 865 031d 21090000 		.4byte	.LASF90
 866 0321 03       		.byte	0x3
 867 0322 2D02     		.2byte	0x22d
 868 0324 56020000 		.4byte	0x256
ARM GAS  /tmp/cckM5Epi.s 			page 21


 869 0328 02       		.byte	0x2
 870 0329 23       		.byte	0x23
 871 032a 1A       		.uleb128 0x1a
 872 032b 0D       		.uleb128 0xd
 873 032c ED030000 		.4byte	.LASF91
 874 0330 03       		.byte	0x3
 875 0331 2E02     		.2byte	0x22e
 876 0333 31020000 		.4byte	0x231
 877 0337 02       		.byte	0x2
 878 0338 23       		.byte	0x23
 879 0339 1C       		.uleb128 0x1c
 880 033a 0E       		.uleb128 0xe
 881 033b 41465200 		.ascii	"AFR\000"
 882 033f 03       		.byte	0x3
 883 0340 2F02     		.2byte	0x22f
 884 0342 68030000 		.4byte	0x368
 885 0346 02       		.byte	0x2
 886 0347 23       		.byte	0x23
 887 0348 20       		.uleb128 0x20
 888 0349 0E       		.uleb128 0xe
 889 034a 42525200 		.ascii	"BRR\000"
 890 034e 03       		.byte	0x3
 891 034f 3002     		.2byte	0x230
 892 0351 56020000 		.4byte	0x256
 893 0355 02       		.byte	0x2
 894 0356 23       		.byte	0x23
 895 0357 28       		.uleb128 0x28
 896 0358 0D       		.uleb128 0xd
 897 0359 2C060000 		.4byte	.LASF92
 898 035d 03       		.byte	0x3
 899 035e 3102     		.2byte	0x231
 900 0360 D8010000 		.4byte	0x1d8
 901 0364 02       		.byte	0x2
 902 0365 23       		.byte	0x23
 903 0366 2A       		.uleb128 0x2a
 904 0367 00       		.byte	0
 905 0368 07       		.uleb128 0x7
 906 0369 36020000 		.4byte	0x236
 907 036d 0B       		.uleb128 0xb
 908 036e E0030000 		.4byte	.LASF93
 909 0372 03       		.byte	0x3
 910 0373 3202     		.2byte	0x232
 911 0375 7D020000 		.4byte	0x27d
 912 0379 0F       		.uleb128 0xf
 913 037a 01       		.byte	0x1
 914 037b 04       		.byte	0x4
 915 037c 37       		.byte	0x37
 916 037d 8E030000 		.4byte	0x38e
 917 0381 03       		.uleb128 0x3
 918 0382 FA050000 		.4byte	.LASF94
 919 0386 00       		.sleb128 0
 920 0387 03       		.uleb128 0x3
 921 0388 6A090000 		.4byte	.LASF95
 922 038c 04       		.sleb128 4
 923 038d 00       		.byte	0
 924 038e 05       		.uleb128 0x5
 925 038f 70020000 		.4byte	.LASF96
ARM GAS  /tmp/cckM5Epi.s 			page 22


 926 0393 04       		.byte	0x4
 927 0394 3A       		.byte	0x3a
 928 0395 79030000 		.4byte	0x379
 929 0399 0F       		.uleb128 0xf
 930 039a 01       		.byte	0x1
 931 039b 04       		.byte	0x4
 932 039c 43       		.byte	0x43
 933 039d B4030000 		.4byte	0x3b4
 934 03a1 03       		.uleb128 0x3
 935 03a2 6E080000 		.4byte	.LASF97
 936 03a6 08       		.sleb128 8
 937 03a7 03       		.uleb128 0x3
 938 03a8 8D060000 		.4byte	.LASF98
 939 03ac 0C       		.sleb128 12
 940 03ad 03       		.uleb128 0x3
 941 03ae 3E010000 		.4byte	.LASF99
 942 03b2 10       		.sleb128 16
 943 03b3 00       		.byte	0
 944 03b4 05       		.uleb128 0x5
 945 03b5 02080000 		.4byte	.LASF100
 946 03b9 04       		.byte	0x4
 947 03ba 47       		.byte	0x47
 948 03bb 99030000 		.4byte	0x399
 949 03bf 10       		.uleb128 0x10
 950 03c0 08       		.byte	0x8
 951 03c1 04       		.byte	0x4
 952 03c2 50       		.byte	0x50
 953 03c3 00040000 		.4byte	0x400
 954 03c7 11       		.uleb128 0x11
 955 03c8 29050000 		.4byte	.LASF101
 956 03cc 04       		.byte	0x4
 957 03cd 52       		.byte	0x52
 958 03ce FC010000 		.4byte	0x1fc
 959 03d2 02       		.byte	0x2
 960 03d3 23       		.byte	0x23
 961 03d4 00       		.uleb128 0
 962 03d5 11       		.uleb128 0x11
 963 03d6 F0050000 		.4byte	.LASF102
 964 03da 04       		.byte	0x4
 965 03db 55       		.byte	0x55
 966 03dc 8E030000 		.4byte	0x38e
 967 03e0 02       		.byte	0x2
 968 03e1 23       		.byte	0x23
 969 03e2 04       		.uleb128 0x4
 970 03e3 11       		.uleb128 0x11
 971 03e4 AE050000 		.4byte	.LASF103
 972 03e8 04       		.byte	0x4
 973 03e9 58       		.byte	0x58
 974 03ea B4030000 		.4byte	0x3b4
 975 03ee 02       		.byte	0x2
 976 03ef 23       		.byte	0x23
 977 03f0 05       		.uleb128 0x5
 978 03f1 11       		.uleb128 0x11
 979 03f2 F2000000 		.4byte	.LASF104
 980 03f6 04       		.byte	0x4
 981 03f7 5B       		.byte	0x5b
 982 03f8 71020000 		.4byte	0x271
ARM GAS  /tmp/cckM5Epi.s 			page 23


 983 03fc 02       		.byte	0x2
 984 03fd 23       		.byte	0x23
 985 03fe 06       		.uleb128 0x6
 986 03ff 00       		.byte	0
 987 0400 05       		.uleb128 0x5
 988 0401 3B080000 		.4byte	.LASF105
 989 0405 04       		.byte	0x4
 990 0406 5D       		.byte	0x5d
 991 0407 BF030000 		.4byte	0x3bf
 992 040b 0F       		.uleb128 0xf
 993 040c 01       		.byte	0x1
 994 040d 05       		.byte	0x5
 995 040e 3F       		.byte	0x3f
 996 040f 2C040000 		.4byte	0x42c
 997 0413 03       		.uleb128 0x3
 998 0414 3A020000 		.4byte	.LASF106
 999 0418 00       		.sleb128 0
 1000 0419 03       		.uleb128 0x3
 1001 041a 6B070000 		.4byte	.LASF107
 1002 041e 01       		.sleb128 1
 1003 041f 03       		.uleb128 0x3
 1004 0420 B6010000 		.4byte	.LASF108
 1005 0424 02       		.sleb128 2
 1006 0425 03       		.uleb128 0x3
 1007 0426 F1010000 		.4byte	.LASF109
 1008 042a 03       		.sleb128 3
 1009 042b 00       		.byte	0
 1010 042c 05       		.uleb128 0x5
 1011 042d 10090000 		.4byte	.LASF110
 1012 0431 05       		.byte	0x5
 1013 0432 44       		.byte	0x44
 1014 0433 0B040000 		.4byte	0x40b
 1015 0437 0F       		.uleb128 0xf
 1016 0438 01       		.byte	0x1
 1017 0439 05       		.byte	0x5
 1018 043a 4F       		.byte	0x4f
 1019 043b 4C040000 		.4byte	0x44c
 1020 043f 03       		.uleb128 0x3
 1021 0440 0C010000 		.4byte	.LASF111
 1022 0444 00       		.sleb128 0
 1023 0445 03       		.uleb128 0x3
 1024 0446 C3080000 		.4byte	.LASF112
 1025 044a 01       		.sleb128 1
 1026 044b 00       		.byte	0
 1027 044c 05       		.uleb128 0x5
 1028 044d 1A030000 		.4byte	.LASF113
 1029 0451 05       		.byte	0x5
 1030 0452 51       		.byte	0x51
 1031 0453 37040000 		.4byte	0x437
 1032 0457 0F       		.uleb128 0xf
 1033 0458 01       		.byte	0x1
 1034 0459 05       		.byte	0x5
 1035 045a 5C       		.byte	0x5c
 1036 045b 78040000 		.4byte	0x478
 1037 045f 03       		.uleb128 0x3
 1038 0460 8D090000 		.4byte	.LASF114
 1039 0464 00       		.sleb128 0
ARM GAS  /tmp/cckM5Epi.s 			page 24


 1040 0465 03       		.uleb128 0x3
 1041 0466 A2060000 		.4byte	.LASF115
 1042 046a 01       		.sleb128 1
 1043 046b 03       		.uleb128 0x3
 1044 046c 1A010000 		.4byte	.LASF116
 1045 0470 02       		.sleb128 2
 1046 0471 03       		.uleb128 0x3
 1047 0472 9F090000 		.4byte	.LASF117
 1048 0476 03       		.sleb128 3
 1049 0477 00       		.byte	0
 1050 0478 05       		.uleb128 0x5
 1051 0479 6F030000 		.4byte	.LASF118
 1052 047d 05       		.byte	0x5
 1053 047e 61       		.byte	0x61
 1054 047f 57040000 		.4byte	0x457
 1055 0483 0F       		.uleb128 0xf
 1056 0484 01       		.byte	0x1
 1057 0485 05       		.byte	0x5
 1058 0486 6C       		.byte	0x6c
 1059 0487 9E040000 		.4byte	0x49e
 1060 048b 03       		.uleb128 0x3
 1061 048c 93040000 		.4byte	.LASF119
 1062 0490 00       		.sleb128 0
 1063 0491 03       		.uleb128 0x3
 1064 0492 55080000 		.4byte	.LASF120
 1065 0496 01       		.sleb128 1
 1066 0497 03       		.uleb128 0x3
 1067 0498 38090000 		.4byte	.LASF121
 1068 049c 02       		.sleb128 2
 1069 049d 00       		.byte	0
 1070 049e 05       		.uleb128 0x5
 1071 049f 27040000 		.4byte	.LASF122
 1072 04a3 05       		.byte	0x5
 1073 04a4 6F       		.byte	0x6f
 1074 04a5 83040000 		.4byte	0x483
 1075 04a9 10       		.uleb128 0x10
 1076 04aa 08       		.byte	0x8
 1077 04ab 05       		.byte	0x5
 1078 04ac 86       		.byte	0x86
 1079 04ad F8040000 		.4byte	0x4f8
 1080 04b1 11       		.uleb128 0x11
 1081 04b2 2F090000 		.4byte	.LASF123
 1082 04b6 05       		.byte	0x5
 1083 04b7 88       		.byte	0x88
 1084 04b8 FC010000 		.4byte	0x1fc
 1085 04bc 02       		.byte	0x2
 1086 04bd 23       		.byte	0x23
 1087 04be 00       		.uleb128 0
 1088 04bf 11       		.uleb128 0x11
 1089 04c0 31080000 		.4byte	.LASF124
 1090 04c4 05       		.byte	0x5
 1091 04c5 8B       		.byte	0x8b
 1092 04c6 2C040000 		.4byte	0x42c
 1093 04ca 02       		.byte	0x2
 1094 04cb 23       		.byte	0x23
 1095 04cc 04       		.uleb128 0x4
 1096 04cd 11       		.uleb128 0x11
ARM GAS  /tmp/cckM5Epi.s 			page 25


 1097 04ce D2010000 		.4byte	.LASF125
 1098 04d2 05       		.byte	0x5
 1099 04d3 8E       		.byte	0x8e
 1100 04d4 78040000 		.4byte	0x478
 1101 04d8 02       		.byte	0x2
 1102 04d9 23       		.byte	0x23
 1103 04da 05       		.uleb128 0x5
 1104 04db 11       		.uleb128 0x11
 1105 04dc E4040000 		.4byte	.LASF126
 1106 04e0 05       		.byte	0x5
 1107 04e1 91       		.byte	0x91
 1108 04e2 4C040000 		.4byte	0x44c
 1109 04e6 02       		.byte	0x2
 1110 04e7 23       		.byte	0x23
 1111 04e8 06       		.uleb128 0x6
 1112 04e9 11       		.uleb128 0x11
 1113 04ea 79070000 		.4byte	.LASF127
 1114 04ee 05       		.byte	0x5
 1115 04ef 94       		.byte	0x94
 1116 04f0 9E040000 		.4byte	0x49e
 1117 04f4 02       		.byte	0x2
 1118 04f5 23       		.byte	0x23
 1119 04f6 07       		.uleb128 0x7
 1120 04f7 00       		.byte	0
 1121 04f8 05       		.uleb128 0x5
 1122 04f9 7A050000 		.4byte	.LASF128
 1123 04fd 05       		.byte	0x5
 1124 04fe 96       		.byte	0x96
 1125 04ff A9040000 		.4byte	0x4a9
 1126 0503 10       		.uleb128 0x10
 1127 0504 04       		.byte	0x4
 1128 0505 06       		.byte	0x6
 1129 0506 36       		.byte	0x36
 1130 0507 44050000 		.4byte	0x544
 1131 050b 11       		.uleb128 0x11
 1132 050c 54040000 		.4byte	.LASF129
 1133 0510 06       		.byte	0x6
 1134 0511 38       		.byte	0x38
 1135 0512 BF010000 		.4byte	0x1bf
 1136 0516 02       		.byte	0x2
 1137 0517 23       		.byte	0x23
 1138 0518 00       		.uleb128 0
 1139 0519 11       		.uleb128 0x11
 1140 051a 64040000 		.4byte	.LASF130
 1141 051e 06       		.byte	0x6
 1142 051f 3D       		.byte	0x3d
 1143 0520 BF010000 		.4byte	0x1bf
 1144 0524 02       		.byte	0x2
 1145 0525 23       		.byte	0x23
 1146 0526 01       		.uleb128 0x1
 1147 0527 11       		.uleb128 0x11
 1148 0528 1F070000 		.4byte	.LASF131
 1149 052c 06       		.byte	0x6
 1150 052d 41       		.byte	0x41
 1151 052e BF010000 		.4byte	0x1bf
 1152 0532 02       		.byte	0x2
 1153 0533 23       		.byte	0x23
ARM GAS  /tmp/cckM5Epi.s 			page 26


 1154 0534 02       		.uleb128 0x2
 1155 0535 11       		.uleb128 0x11
 1156 0536 A0000000 		.4byte	.LASF132
 1157 053a 06       		.byte	0x6
 1158 053b 45       		.byte	0x45
 1159 053c 71020000 		.4byte	0x271
 1160 0540 02       		.byte	0x2
 1161 0541 23       		.byte	0x23
 1162 0542 03       		.uleb128 0x3
 1163 0543 00       		.byte	0
 1164 0544 05       		.uleb128 0x5
 1165 0545 B2040000 		.4byte	.LASF133
 1166 0549 06       		.byte	0x6
 1167 054a 48       		.byte	0x48
 1168 054b 03050000 		.4byte	0x503
 1169 054f 0F       		.uleb128 0xf
 1170 0550 01       		.byte	0x1
 1171 0551 07       		.byte	0x7
 1172 0552 38       		.byte	0x38
 1173 0553 64050000 		.4byte	0x564
 1174 0557 03       		.uleb128 0x3
 1175 0558 BD060000 		.4byte	.LASF134
 1176 055c 00       		.sleb128 0
 1177 055d 03       		.uleb128 0x3
 1178 055e C2060000 		.4byte	.LASF135
 1179 0562 01       		.sleb128 1
 1180 0563 00       		.byte	0
 1181 0564 05       		.uleb128 0x5
 1182 0565 1D050000 		.4byte	.LASF136
 1183 0569 07       		.byte	0x7
 1184 056a 3B       		.byte	0x3b
 1185 056b 4F050000 		.4byte	0x54f
 1186 056f 0F       		.uleb128 0xf
 1187 0570 01       		.byte	0x1
 1188 0571 07       		.byte	0x7
 1189 0572 3E       		.byte	0x3e
 1190 0573 7E050000 		.4byte	0x57e
 1191 0577 03       		.uleb128 0x3
 1192 0578 5A010000 		.4byte	.LASF137
 1193 057c 00       		.sleb128 0
 1194 057d 00       		.byte	0
 1195 057e 05       		.uleb128 0x5
 1196 057f 50090000 		.4byte	.LASF138
 1197 0583 07       		.byte	0x7
 1198 0584 40       		.byte	0x40
 1199 0585 6F050000 		.4byte	0x56f
 1200 0589 0F       		.uleb128 0xf
 1201 058a 01       		.byte	0x1
 1202 058b 07       		.byte	0x7
 1203 058c 43       		.byte	0x43
 1204 058d 9E050000 		.4byte	0x59e
 1205 0591 03       		.uleb128 0x3
 1206 0592 FF080000 		.4byte	.LASF139
 1207 0596 00       		.sleb128 0
 1208 0597 03       		.uleb128 0x3
 1209 0598 C0020000 		.4byte	.LASF140
 1210 059c 01       		.sleb128 1
ARM GAS  /tmp/cckM5Epi.s 			page 27


 1211 059d 00       		.byte	0
 1212 059e 05       		.uleb128 0x5
 1213 059f F0020000 		.4byte	.LASF141
 1214 05a3 07       		.byte	0x7
 1215 05a4 46       		.byte	0x46
 1216 05a5 89050000 		.4byte	0x589
 1217 05a9 12       		.uleb128 0x12
 1218 05aa 01       		.byte	0x1
 1219 05ab 0C050000 		.4byte	.LASF142
 1220 05af 01       		.byte	0x1
 1221 05b0 74       		.byte	0x74
 1222 05b1 01       		.byte	0x1
 1223 05b2 00000000 		.4byte	.LFB56
 1224 05b6 48000000 		.4byte	.LFE56
 1225 05ba 00000000 		.4byte	.LLST0
 1226 05be 01       		.byte	0x1
 1227 05bf 10060000 		.4byte	0x610
 1228 05c3 13       		.uleb128 0x13
 1229 05c4 4C656400 		.ascii	"Led\000"
 1230 05c8 01       		.byte	0x1
 1231 05c9 74       		.byte	0x74
 1232 05ca 64050000 		.4byte	0x564
 1233 05ce 2C000000 		.4byte	.LLST1
 1234 05d2 14       		.uleb128 0x14
 1235 05d3 67050000 		.4byte	.LASF149
 1236 05d7 01       		.byte	0x1
 1237 05d8 76       		.byte	0x76
 1238 05d9 F8040000 		.4byte	0x4f8
 1239 05dd 02       		.byte	0x2
 1240 05de 91       		.byte	0x91
 1241 05df 68       		.sleb128 -24
 1242 05e0 15       		.uleb128 0x15
 1243 05e1 12000000 		.4byte	.LVL2
 1244 05e5 DE080000 		.4byte	0x8de
 1245 05e9 FF050000 		.4byte	0x5ff
 1246 05ed 16       		.uleb128 0x16
 1247 05ee 01       		.byte	0x1
 1248 05ef 51       		.byte	0x51
 1249 05f0 01       		.byte	0x1
 1250 05f1 31       		.byte	0x31
 1251 05f2 16       		.uleb128 0x16
 1252 05f3 01       		.byte	0x1
 1253 05f4 50       		.byte	0x50
 1254 05f5 08       		.byte	0x8
 1255 05f6 74       		.byte	0x74
 1256 05f7 00       		.sleb128 0
 1257 05f8 32       		.byte	0x32
 1258 05f9 24       		.byte	0x24
 1259 05fa 75       		.byte	0x75
 1260 05fb 00       		.sleb128 0
 1261 05fc 22       		.byte	0x22
 1262 05fd 06       		.byte	0x6
 1263 05fe 00       		.byte	0
 1264 05ff 17       		.uleb128 0x17
 1265 0600 3C000000 		.4byte	.LVL3
 1266 0604 F8080000 		.4byte	0x8f8
 1267 0608 16       		.uleb128 0x16
ARM GAS  /tmp/cckM5Epi.s 			page 28


 1268 0609 01       		.byte	0x1
 1269 060a 51       		.byte	0x51
 1270 060b 02       		.byte	0x2
 1271 060c 7D       		.byte	0x7d
 1272 060d 00       		.sleb128 0
 1273 060e 00       		.byte	0
 1274 060f 00       		.byte	0
 1275 0610 18       		.uleb128 0x18
 1276 0611 01       		.byte	0x1
 1277 0612 BB050000 		.4byte	.LASF143
 1278 0616 01       		.byte	0x1
 1279 0617 8C       		.byte	0x8c
 1280 0618 01       		.byte	0x1
 1281 0619 48000000 		.4byte	.LFB57
 1282 061d 64000000 		.4byte	.LFE57
 1283 0621 02       		.byte	0x2
 1284 0622 7D       		.byte	0x7d
 1285 0623 00       		.sleb128 0
 1286 0624 01       		.byte	0x1
 1287 0625 37060000 		.4byte	0x637
 1288 0629 19       		.uleb128 0x19
 1289 062a 4C656400 		.ascii	"Led\000"
 1290 062e 01       		.byte	0x1
 1291 062f 8C       		.byte	0x8c
 1292 0630 64050000 		.4byte	0x564
 1293 0634 01       		.byte	0x1
 1294 0635 50       		.byte	0x50
 1295 0636 00       		.byte	0
 1296 0637 18       		.uleb128 0x18
 1297 0638 01       		.byte	0x1
 1298 0639 82080000 		.4byte	.LASF144
 1299 063d 01       		.byte	0x1
 1300 063e 99       		.byte	0x99
 1301 063f 01       		.byte	0x1
 1302 0640 64000000 		.4byte	.LFB58
 1303 0644 80000000 		.4byte	.LFE58
 1304 0648 02       		.byte	0x2
 1305 0649 7D       		.byte	0x7d
 1306 064a 00       		.sleb128 0
 1307 064b 01       		.byte	0x1
 1308 064c 5E060000 		.4byte	0x65e
 1309 0650 19       		.uleb128 0x19
 1310 0651 4C656400 		.ascii	"Led\000"
 1311 0655 01       		.byte	0x1
 1312 0656 99       		.byte	0x99
 1313 0657 64050000 		.4byte	0x564
 1314 065b 01       		.byte	0x1
 1315 065c 50       		.byte	0x50
 1316 065d 00       		.byte	0
 1317 065e 18       		.uleb128 0x18
 1318 065f 01       		.byte	0x1
 1319 0660 E6080000 		.4byte	.LASF145
 1320 0664 01       		.byte	0x1
 1321 0665 A6       		.byte	0xa6
 1322 0666 01       		.byte	0x1
 1323 0667 80000000 		.4byte	.LFB59
 1324 066b A0000000 		.4byte	.LFE59
ARM GAS  /tmp/cckM5Epi.s 			page 29


 1325 066f 02       		.byte	0x2
 1326 0670 7D       		.byte	0x7d
 1327 0671 00       		.sleb128 0
 1328 0672 01       		.byte	0x1
 1329 0673 87060000 		.4byte	0x687
 1330 0677 13       		.uleb128 0x13
 1331 0678 4C656400 		.ascii	"Led\000"
 1332 067c 01       		.byte	0x1
 1333 067d A6       		.byte	0xa6
 1334 067e 64050000 		.4byte	0x564
 1335 0682 4D000000 		.4byte	.LLST2
 1336 0686 00       		.byte	0
 1337 0687 12       		.uleb128 0x12
 1338 0688 01       		.byte	0x1
 1339 0689 CF000000 		.4byte	.LASF146
 1340 068d 01       		.byte	0x1
 1341 068e B7       		.byte	0xb7
 1342 068f 01       		.byte	0x1
 1343 0690 A0000000 		.4byte	.LFB60
 1344 0694 28010000 		.4byte	.LFE60
 1345 0698 6E000000 		.4byte	.LLST3
 1346 069c 01       		.byte	0x1
 1347 069d 6C070000 		.4byte	0x76c
 1348 06a1 1A       		.uleb128 0x1a
 1349 06a2 EA010000 		.4byte	.LASF147
 1350 06a6 01       		.byte	0x1
 1351 06a7 B7       		.byte	0xb7
 1352 06a8 7E050000 		.4byte	0x57e
 1353 06ac 9A000000 		.4byte	.LLST4
 1354 06b0 1A       		.uleb128 0x1a
 1355 06b1 3D050000 		.4byte	.LASF148
 1356 06b5 01       		.byte	0x1
 1357 06b6 B7       		.byte	0xb7
 1358 06b7 9E050000 		.4byte	0x59e
 1359 06bb BB000000 		.4byte	.LLST5
 1360 06bf 14       		.uleb128 0x14
 1361 06c0 67050000 		.4byte	.LASF149
 1362 06c4 01       		.byte	0x1
 1363 06c5 B9       		.byte	0xb9
 1364 06c6 F8040000 		.4byte	0x4f8
 1365 06ca 02       		.byte	0x2
 1366 06cb 91       		.byte	0x91
 1367 06cc 68       		.sleb128 -24
 1368 06cd 14       		.uleb128 0x14
 1369 06ce CA050000 		.4byte	.LASF150
 1370 06d2 01       		.byte	0x1
 1371 06d3 BA       		.byte	0xba
 1372 06d4 00040000 		.4byte	0x400
 1373 06d8 02       		.byte	0x2
 1374 06d9 91       		.byte	0x91
 1375 06da 60       		.sleb128 -32
 1376 06db 14       		.uleb128 0x14
 1377 06dc 91030000 		.4byte	.LASF151
 1378 06e0 01       		.byte	0x1
 1379 06e1 BB       		.byte	0xbb
 1380 06e2 44050000 		.4byte	0x544
 1381 06e6 02       		.byte	0x2
ARM GAS  /tmp/cckM5Epi.s 			page 30


 1382 06e7 91       		.byte	0x91
 1383 06e8 5C       		.sleb128 -36
 1384 06e9 15       		.uleb128 0x15
 1385 06ea B0000000 		.4byte	.LVL11
 1386 06ee DE080000 		.4byte	0x8de
 1387 06f2 01070000 		.4byte	0x701
 1388 06f6 16       		.uleb128 0x16
 1389 06f7 01       		.byte	0x1
 1390 06f8 51       		.byte	0x51
 1391 06f9 01       		.byte	0x1
 1392 06fa 31       		.byte	0x31
 1393 06fb 16       		.uleb128 0x16
 1394 06fc 01       		.byte	0x1
 1395 06fd 50       		.byte	0x50
 1396 06fe 01       		.byte	0x1
 1397 06ff 31       		.byte	0x31
 1398 0700 00       		.byte	0
 1399 0701 15       		.uleb128 0x15
 1400 0702 B8000000 		.4byte	.LVL12
 1401 0706 18090000 		.4byte	0x918
 1402 070a 19070000 		.4byte	0x719
 1403 070e 16       		.uleb128 0x16
 1404 070f 01       		.byte	0x1
 1405 0710 51       		.byte	0x51
 1406 0711 01       		.byte	0x1
 1407 0712 31       		.byte	0x31
 1408 0713 16       		.uleb128 0x16
 1409 0714 01       		.byte	0x1
 1410 0715 50       		.byte	0x50
 1411 0716 01       		.byte	0x1
 1412 0717 31       		.byte	0x31
 1413 0718 00       		.byte	0
 1414 0719 15       		.uleb128 0x15
 1415 071a D8000000 		.4byte	.LVL13
 1416 071e F8080000 		.4byte	0x8f8
 1417 0722 2D070000 		.4byte	0x72d
 1418 0726 16       		.uleb128 0x16
 1419 0727 01       		.byte	0x1
 1420 0728 51       		.byte	0x51
 1421 0729 02       		.byte	0x2
 1422 072a 91       		.byte	0x91
 1423 072b 68       		.sleb128 -24
 1424 072c 00       		.byte	0
 1425 072d 15       		.uleb128 0x15
 1426 072e E8000000 		.4byte	.LVL14
 1427 0732 32090000 		.4byte	0x932
 1428 0736 47070000 		.4byte	0x747
 1429 073a 16       		.uleb128 0x16
 1430 073b 01       		.byte	0x1
 1431 073c 51       		.byte	0x51
 1432 073d 02       		.byte	0x2
 1433 073e 74       		.byte	0x74
 1434 073f 00       		.sleb128 0
 1435 0740 16       		.uleb128 0x16
 1436 0741 01       		.byte	0x1
 1437 0742 50       		.byte	0x50
 1438 0743 02       		.byte	0x2
ARM GAS  /tmp/cckM5Epi.s 			page 31


 1439 0744 74       		.byte	0x74
 1440 0745 00       		.sleb128 0
 1441 0746 00       		.byte	0
 1442 0747 15       		.uleb128 0x15
 1443 0748 04010000 		.4byte	.LVL15
 1444 074c 4C090000 		.4byte	0x94c
 1445 0750 5B070000 		.4byte	0x75b
 1446 0754 16       		.uleb128 0x16
 1447 0755 01       		.byte	0x1
 1448 0756 50       		.byte	0x50
 1449 0757 02       		.byte	0x2
 1450 0758 91       		.byte	0x91
 1451 0759 60       		.sleb128 -32
 1452 075a 00       		.byte	0
 1453 075b 17       		.uleb128 0x17
 1454 075c 1E010000 		.4byte	.LVL16
 1455 0760 66090000 		.4byte	0x966
 1456 0764 16       		.uleb128 0x16
 1457 0765 01       		.byte	0x1
 1458 0766 50       		.byte	0x50
 1459 0767 02       		.byte	0x2
 1460 0768 91       		.byte	0x91
 1461 0769 5C       		.sleb128 -36
 1462 076a 00       		.byte	0
 1463 076b 00       		.byte	0
 1464 076c 1B       		.uleb128 0x1b
 1465 076d 01       		.byte	0x1
 1466 076e 49050000 		.4byte	.LASF174
 1467 0772 01       		.byte	0x1
 1468 0773 EB       		.byte	0xeb
 1469 0774 01       		.byte	0x1
 1470 0775 FC010000 		.4byte	0x1fc
 1471 0779 28010000 		.4byte	.LFB61
 1472 077d 40010000 		.4byte	.LFE61
 1473 0781 DC000000 		.4byte	.LLST6
 1474 0785 01       		.byte	0x1
 1475 0786 A9070000 		.4byte	0x7a9
 1476 078a 1A       		.uleb128 0x1a
 1477 078b EA010000 		.4byte	.LASF147
 1478 078f 01       		.byte	0x1
 1479 0790 EB       		.byte	0xeb
 1480 0791 7E050000 		.4byte	0x57e
 1481 0795 FC000000 		.4byte	.LLST7
 1482 0799 17       		.uleb128 0x17
 1483 079a 38010000 		.4byte	.LVL19
 1484 079e 80090000 		.4byte	0x980
 1485 07a2 16       		.uleb128 0x16
 1486 07a3 01       		.byte	0x1
 1487 07a4 51       		.byte	0x51
 1488 07a5 01       		.byte	0x1
 1489 07a6 31       		.byte	0x31
 1490 07a7 00       		.byte	0
 1491 07a8 00       		.byte	0
 1492 07a9 1C       		.uleb128 0x1c
 1493 07aa 6B060000 		.4byte	.LASF152
 1494 07ae 08       		.byte	0x8
 1495 07af 1606     		.2byte	0x616
ARM GAS  /tmp/cckM5Epi.s 			page 32


 1496 07b1 B7070000 		.4byte	0x7b7
 1497 07b5 01       		.byte	0x1
 1498 07b6 01       		.byte	0x1
 1499 07b7 07       		.uleb128 0x7
 1500 07b8 EA010000 		.4byte	0x1ea
 1501 07bc 08       		.uleb128 0x8
 1502 07bd CC070000 		.4byte	0x7cc
 1503 07c1 CC070000 		.4byte	0x7cc
 1504 07c5 09       		.uleb128 0x9
 1505 07c6 2A020000 		.4byte	0x22a
 1506 07ca 01       		.byte	0x1
 1507 07cb 00       		.byte	0
 1508 07cc 1D       		.uleb128 0x1d
 1509 07cd 04       		.byte	0x4
 1510 07ce 6D030000 		.4byte	0x36d
 1511 07d2 1E       		.uleb128 0x1e
 1512 07d3 AD080000 		.4byte	.LASF153
 1513 07d7 01       		.byte	0x1
 1514 07d8 49       		.byte	0x49
 1515 07d9 BC070000 		.4byte	0x7bc
 1516 07dd 01       		.byte	0x1
 1517 07de 05       		.byte	0x5
 1518 07df 03       		.byte	0x3
 1519 07e0 00000000 		.4byte	GPIO_PORT
 1520 07e4 08       		.uleb128 0x8
 1521 07e5 D8010000 		.4byte	0x1d8
 1522 07e9 F4070000 		.4byte	0x7f4
 1523 07ed 09       		.uleb128 0x9
 1524 07ee 2A020000 		.4byte	0x22a
 1525 07f2 01       		.byte	0x1
 1526 07f3 00       		.byte	0
 1527 07f4 1E       		.uleb128 0x1e
 1528 07f5 DF000000 		.4byte	.LASF154
 1529 07f9 01       		.byte	0x1
 1530 07fa 4A       		.byte	0x4a
 1531 07fb 06080000 		.4byte	0x806
 1532 07ff 01       		.byte	0x1
 1533 0800 05       		.byte	0x5
 1534 0801 03       		.byte	0x3
 1535 0802 00000000 		.4byte	GPIO_PIN
 1536 0806 1F       		.uleb128 0x1f
 1537 0807 E4070000 		.4byte	0x7e4
 1538 080b 1E       		.uleb128 0x1e
 1539 080c BA070000 		.4byte	.LASF155
 1540 0810 01       		.byte	0x1
 1541 0811 4B       		.byte	0x4b
 1542 0812 1D080000 		.4byte	0x81d
 1543 0816 01       		.byte	0x1
 1544 0817 05       		.byte	0x5
 1545 0818 03       		.byte	0x3
 1546 0819 00000000 		.4byte	GPIO_CLK
 1547 081d 1F       		.uleb128 0x1f
 1548 081e 36020000 		.4byte	0x236
 1549 0822 08       		.uleb128 0x8
 1550 0823 CC070000 		.4byte	0x7cc
 1551 0827 32080000 		.4byte	0x832
 1552 082b 09       		.uleb128 0x9
ARM GAS  /tmp/cckM5Epi.s 			page 33


 1553 082c 2A020000 		.4byte	0x22a
 1554 0830 00       		.byte	0
 1555 0831 00       		.byte	0
 1556 0832 1E       		.uleb128 0x1e
 1557 0833 32010000 		.4byte	.LASF156
 1558 0837 01       		.byte	0x1
 1559 0838 4D       		.byte	0x4d
 1560 0839 22080000 		.4byte	0x822
 1561 083d 01       		.byte	0x1
 1562 083e 05       		.byte	0x5
 1563 083f 03       		.byte	0x3
 1564 0840 00000000 		.4byte	BUTTON_PORT
 1565 0844 08       		.uleb128 0x8
 1566 0845 D8010000 		.4byte	0x1d8
 1567 0849 54080000 		.4byte	0x854
 1568 084d 09       		.uleb128 0x9
 1569 084e 2A020000 		.4byte	0x22a
 1570 0852 00       		.byte	0
 1571 0853 00       		.byte	0
 1572 0854 1E       		.uleb128 0x1e
 1573 0855 C3070000 		.4byte	.LASF157
 1574 0859 01       		.byte	0x1
 1575 085a 4F       		.byte	0x4f
 1576 085b 66080000 		.4byte	0x866
 1577 085f 01       		.byte	0x1
 1578 0860 05       		.byte	0x5
 1579 0861 03       		.byte	0x3
 1580 0862 00000000 		.4byte	BUTTON_PIN
 1581 0866 1F       		.uleb128 0x1f
 1582 0867 44080000 		.4byte	0x844
 1583 086b 1E       		.uleb128 0x1e
 1584 086c 60070000 		.4byte	.LASF158
 1585 0870 01       		.byte	0x1
 1586 0871 51       		.byte	0x51
 1587 0872 7D080000 		.4byte	0x87d
 1588 0876 01       		.byte	0x1
 1589 0877 05       		.byte	0x5
 1590 0878 03       		.byte	0x3
 1591 0879 00000000 		.4byte	BUTTON_CLK
 1592 087d 1F       		.uleb128 0x1f
 1593 087e 46020000 		.4byte	0x246
 1594 0882 1E       		.uleb128 0x1e
 1595 0883 B0090000 		.4byte	.LASF159
 1596 0887 01       		.byte	0x1
 1597 0888 53       		.byte	0x53
 1598 0889 94080000 		.4byte	0x894
 1599 088d 01       		.byte	0x1
 1600 088e 05       		.byte	0x5
 1601 088f 03       		.byte	0x3
 1602 0890 00000000 		.4byte	BUTTON_EXTI_LINE
 1603 0894 1F       		.uleb128 0x1f
 1604 0895 44080000 		.4byte	0x844
 1605 0899 1E       		.uleb128 0x1e
 1606 089a F8060000 		.4byte	.LASF160
 1607 089e 01       		.byte	0x1
 1608 089f 55       		.byte	0x55
 1609 08a0 AB080000 		.4byte	0x8ab
ARM GAS  /tmp/cckM5Epi.s 			page 34


 1610 08a4 01       		.byte	0x1
 1611 08a5 05       		.byte	0x5
 1612 08a6 03       		.byte	0x3
 1613 08a7 00000000 		.4byte	BUTTON_PORT_SOURCE
 1614 08ab 1F       		.uleb128 0x1f
 1615 08ac 44080000 		.4byte	0x844
 1616 08b0 1E       		.uleb128 0x1e
 1617 08b1 38040000 		.4byte	.LASF161
 1618 08b5 01       		.byte	0x1
 1619 08b6 57       		.byte	0x57
 1620 08b7 C2080000 		.4byte	0x8c2
 1621 08bb 01       		.byte	0x1
 1622 08bc 05       		.byte	0x5
 1623 08bd 03       		.byte	0x3
 1624 08be 00000000 		.4byte	BUTTON_PIN_SOURCE
 1625 08c2 1F       		.uleb128 0x1f
 1626 08c3 44080000 		.4byte	0x844
 1627 08c7 1E       		.uleb128 0x1e
 1628 08c8 81020000 		.4byte	.LASF162
 1629 08cc 01       		.byte	0x1
 1630 08cd 59       		.byte	0x59
 1631 08ce D9080000 		.4byte	0x8d9
 1632 08d2 01       		.byte	0x1
 1633 08d3 05       		.byte	0x5
 1634 08d4 03       		.byte	0x3
 1635 08d5 00000000 		.4byte	BUTTON_IRQn
 1636 08d9 1F       		.uleb128 0x1f
 1637 08da 44080000 		.4byte	0x844
 1638 08de 20       		.uleb128 0x20
 1639 08df 01       		.byte	0x1
 1640 08e0 D8070000 		.4byte	.LASF163
 1641 08e4 09       		.byte	0x9
 1642 08e5 C701     		.2byte	0x1c7
 1643 08e7 01       		.byte	0x1
 1644 08e8 01       		.byte	0x1
 1645 08e9 F8080000 		.4byte	0x8f8
 1646 08ed 21       		.uleb128 0x21
 1647 08ee FC010000 		.4byte	0x1fc
 1648 08f2 21       		.uleb128 0x21
 1649 08f3 71020000 		.4byte	0x271
 1650 08f7 00       		.byte	0
 1651 08f8 20       		.uleb128 0x20
 1652 08f9 01       		.byte	0x1
 1653 08fa EF040000 		.4byte	.LASF164
 1654 08fe 05       		.byte	0x5
 1655 08ff 6701     		.2byte	0x167
 1656 0901 01       		.byte	0x1
 1657 0902 01       		.byte	0x1
 1658 0903 12090000 		.4byte	0x912
 1659 0907 21       		.uleb128 0x21
 1660 0908 CC070000 		.4byte	0x7cc
 1661 090c 21       		.uleb128 0x21
 1662 090d 12090000 		.4byte	0x912
 1663 0911 00       		.byte	0
 1664 0912 1D       		.uleb128 0x1d
 1665 0913 04       		.byte	0x4
 1666 0914 F8040000 		.4byte	0x4f8
ARM GAS  /tmp/cckM5Epi.s 			page 35


 1667 0918 20       		.uleb128 0x20
 1668 0919 01       		.byte	0x1
 1669 091a 96070000 		.4byte	.LASF165
 1670 091e 09       		.byte	0x9
 1671 091f C801     		.2byte	0x1c8
 1672 0921 01       		.byte	0x1
 1673 0922 01       		.byte	0x1
 1674 0923 32090000 		.4byte	0x932
 1675 0927 21       		.uleb128 0x21
 1676 0928 FC010000 		.4byte	0x1fc
 1677 092c 21       		.uleb128 0x21
 1678 092d 71020000 		.4byte	0x271
 1679 0931 00       		.byte	0
 1680 0932 20       		.uleb128 0x20
 1681 0933 01       		.byte	0x1
 1682 0934 A1020000 		.4byte	.LASF166
 1683 0938 0A       		.byte	0xa
 1684 0939 C301     		.2byte	0x1c3
 1685 093b 01       		.byte	0x1
 1686 093c 01       		.byte	0x1
 1687 093d 4C090000 		.4byte	0x94c
 1688 0941 21       		.uleb128 0x21
 1689 0942 BF010000 		.4byte	0x1bf
 1690 0946 21       		.uleb128 0x21
 1691 0947 BF010000 		.4byte	0x1bf
 1692 094b 00       		.byte	0
 1693 094c 22       		.uleb128 0x22
 1694 094d 01       		.byte	0x1
 1695 094e AE030000 		.4byte	.LASF167
 1696 0952 04       		.byte	0x4
 1697 0953 AF       		.byte	0xaf
 1698 0954 01       		.byte	0x1
 1699 0955 01       		.byte	0x1
 1700 0956 60090000 		.4byte	0x960
 1701 095a 21       		.uleb128 0x21
 1702 095b 60090000 		.4byte	0x960
 1703 095f 00       		.byte	0
 1704 0960 1D       		.uleb128 0x1d
 1705 0961 04       		.byte	0x4
 1706 0962 00040000 		.4byte	0x400
 1707 0966 22       		.uleb128 0x22
 1708 0967 01       		.byte	0x1
 1709 0968 EA090000 		.4byte	.LASF168
 1710 096c 06       		.byte	0x6
 1711 096d B7       		.byte	0xb7
 1712 096e 01       		.byte	0x1
 1713 096f 01       		.byte	0x1
 1714 0970 7A090000 		.4byte	0x97a
 1715 0974 21       		.uleb128 0x21
 1716 0975 7A090000 		.4byte	0x97a
 1717 0979 00       		.byte	0
 1718 097a 1D       		.uleb128 0x1d
 1719 097b 04       		.byte	0x4
 1720 097c 44050000 		.4byte	0x544
 1721 0980 23       		.uleb128 0x23
 1722 0981 01       		.byte	0x1
 1723 0982 3F030000 		.4byte	.LASF169
ARM GAS  /tmp/cckM5Epi.s 			page 36


 1724 0986 05       		.byte	0x5
 1725 0987 6C01     		.2byte	0x16c
 1726 0989 01       		.byte	0x1
 1727 098a BF010000 		.4byte	0x1bf
 1728 098e 01       		.byte	0x1
 1729 098f 21       		.uleb128 0x21
 1730 0990 CC070000 		.4byte	0x7cc
 1731 0994 21       		.uleb128 0x21
 1732 0995 D8010000 		.4byte	0x1d8
 1733 0999 00       		.byte	0
 1734 099a 00       		.byte	0
 1735              		.section	.debug_abbrev,"",%progbits
 1736              	.Ldebug_abbrev0:
 1737 0000 01       		.uleb128 0x1
 1738 0001 11       		.uleb128 0x11
 1739 0002 01       		.byte	0x1
 1740 0003 25       		.uleb128 0x25
 1741 0004 0E       		.uleb128 0xe
 1742 0005 13       		.uleb128 0x13
 1743 0006 0B       		.uleb128 0xb
 1744 0007 03       		.uleb128 0x3
 1745 0008 0E       		.uleb128 0xe
 1746 0009 1B       		.uleb128 0x1b
 1747 000a 0E       		.uleb128 0xe
 1748 000b 11       		.uleb128 0x11
 1749 000c 01       		.uleb128 0x1
 1750 000d 12       		.uleb128 0x12
 1751 000e 01       		.uleb128 0x1
 1752 000f 10       		.uleb128 0x10
 1753 0010 06       		.uleb128 0x6
 1754 0011 00       		.byte	0
 1755 0012 00       		.byte	0
 1756 0013 02       		.uleb128 0x2
 1757 0014 04       		.uleb128 0x4
 1758 0015 01       		.byte	0x1
 1759 0016 03       		.uleb128 0x3
 1760 0017 0E       		.uleb128 0xe
 1761 0018 0B       		.uleb128 0xb
 1762 0019 0B       		.uleb128 0xb
 1763 001a 3A       		.uleb128 0x3a
 1764 001b 0B       		.uleb128 0xb
 1765 001c 3B       		.uleb128 0x3b
 1766 001d 0B       		.uleb128 0xb
 1767 001e 01       		.uleb128 0x1
 1768 001f 13       		.uleb128 0x13
 1769 0020 00       		.byte	0
 1770 0021 00       		.byte	0
 1771 0022 03       		.uleb128 0x3
 1772 0023 28       		.uleb128 0x28
 1773 0024 00       		.byte	0
 1774 0025 03       		.uleb128 0x3
 1775 0026 0E       		.uleb128 0xe
 1776 0027 1C       		.uleb128 0x1c
 1777 0028 0D       		.uleb128 0xd
 1778 0029 00       		.byte	0
 1779 002a 00       		.byte	0
 1780 002b 04       		.uleb128 0x4
ARM GAS  /tmp/cckM5Epi.s 			page 37


 1781 002c 24       		.uleb128 0x24
 1782 002d 00       		.byte	0
 1783 002e 0B       		.uleb128 0xb
 1784 002f 0B       		.uleb128 0xb
 1785 0030 3E       		.uleb128 0x3e
 1786 0031 0B       		.uleb128 0xb
 1787 0032 03       		.uleb128 0x3
 1788 0033 0E       		.uleb128 0xe
 1789 0034 00       		.byte	0
 1790 0035 00       		.byte	0
 1791 0036 05       		.uleb128 0x5
 1792 0037 16       		.uleb128 0x16
 1793 0038 00       		.byte	0
 1794 0039 03       		.uleb128 0x3
 1795 003a 0E       		.uleb128 0xe
 1796 003b 3A       		.uleb128 0x3a
 1797 003c 0B       		.uleb128 0xb
 1798 003d 3B       		.uleb128 0x3b
 1799 003e 0B       		.uleb128 0xb
 1800 003f 49       		.uleb128 0x49
 1801 0040 13       		.uleb128 0x13
 1802 0041 00       		.byte	0
 1803 0042 00       		.byte	0
 1804 0043 06       		.uleb128 0x6
 1805 0044 24       		.uleb128 0x24
 1806 0045 00       		.byte	0
 1807 0046 0B       		.uleb128 0xb
 1808 0047 0B       		.uleb128 0xb
 1809 0048 3E       		.uleb128 0x3e
 1810 0049 0B       		.uleb128 0xb
 1811 004a 03       		.uleb128 0x3
 1812 004b 08       		.uleb128 0x8
 1813 004c 00       		.byte	0
 1814 004d 00       		.byte	0
 1815 004e 07       		.uleb128 0x7
 1816 004f 35       		.uleb128 0x35
 1817 0050 00       		.byte	0
 1818 0051 49       		.uleb128 0x49
 1819 0052 13       		.uleb128 0x13
 1820 0053 00       		.byte	0
 1821 0054 00       		.byte	0
 1822 0055 08       		.uleb128 0x8
 1823 0056 01       		.uleb128 0x1
 1824 0057 01       		.byte	0x1
 1825 0058 49       		.uleb128 0x49
 1826 0059 13       		.uleb128 0x13
 1827 005a 01       		.uleb128 0x1
 1828 005b 13       		.uleb128 0x13
 1829 005c 00       		.byte	0
 1830 005d 00       		.byte	0
 1831 005e 09       		.uleb128 0x9
 1832 005f 21       		.uleb128 0x21
 1833 0060 00       		.byte	0
 1834 0061 49       		.uleb128 0x49
 1835 0062 13       		.uleb128 0x13
 1836 0063 2F       		.uleb128 0x2f
 1837 0064 0B       		.uleb128 0xb
ARM GAS  /tmp/cckM5Epi.s 			page 38


 1838 0065 00       		.byte	0
 1839 0066 00       		.byte	0
 1840 0067 0A       		.uleb128 0xa
 1841 0068 04       		.uleb128 0x4
 1842 0069 01       		.byte	0x1
 1843 006a 0B       		.uleb128 0xb
 1844 006b 0B       		.uleb128 0xb
 1845 006c 3A       		.uleb128 0x3a
 1846 006d 0B       		.uleb128 0xb
 1847 006e 3B       		.uleb128 0x3b
 1848 006f 05       		.uleb128 0x5
 1849 0070 01       		.uleb128 0x1
 1850 0071 13       		.uleb128 0x13
 1851 0072 00       		.byte	0
 1852 0073 00       		.byte	0
 1853 0074 0B       		.uleb128 0xb
 1854 0075 16       		.uleb128 0x16
 1855 0076 00       		.byte	0
 1856 0077 03       		.uleb128 0x3
 1857 0078 0E       		.uleb128 0xe
 1858 0079 3A       		.uleb128 0x3a
 1859 007a 0B       		.uleb128 0xb
 1860 007b 3B       		.uleb128 0x3b
 1861 007c 05       		.uleb128 0x5
 1862 007d 49       		.uleb128 0x49
 1863 007e 13       		.uleb128 0x13
 1864 007f 00       		.byte	0
 1865 0080 00       		.byte	0
 1866 0081 0C       		.uleb128 0xc
 1867 0082 13       		.uleb128 0x13
 1868 0083 01       		.byte	0x1
 1869 0084 0B       		.uleb128 0xb
 1870 0085 0B       		.uleb128 0xb
 1871 0086 3A       		.uleb128 0x3a
 1872 0087 0B       		.uleb128 0xb
 1873 0088 3B       		.uleb128 0x3b
 1874 0089 05       		.uleb128 0x5
 1875 008a 01       		.uleb128 0x1
 1876 008b 13       		.uleb128 0x13
 1877 008c 00       		.byte	0
 1878 008d 00       		.byte	0
 1879 008e 0D       		.uleb128 0xd
 1880 008f 0D       		.uleb128 0xd
 1881 0090 00       		.byte	0
 1882 0091 03       		.uleb128 0x3
 1883 0092 0E       		.uleb128 0xe
 1884 0093 3A       		.uleb128 0x3a
 1885 0094 0B       		.uleb128 0xb
 1886 0095 3B       		.uleb128 0x3b
 1887 0096 05       		.uleb128 0x5
 1888 0097 49       		.uleb128 0x49
 1889 0098 13       		.uleb128 0x13
 1890 0099 38       		.uleb128 0x38
 1891 009a 0A       		.uleb128 0xa
 1892 009b 00       		.byte	0
 1893 009c 00       		.byte	0
 1894 009d 0E       		.uleb128 0xe
ARM GAS  /tmp/cckM5Epi.s 			page 39


 1895 009e 0D       		.uleb128 0xd
 1896 009f 00       		.byte	0
 1897 00a0 03       		.uleb128 0x3
 1898 00a1 08       		.uleb128 0x8
 1899 00a2 3A       		.uleb128 0x3a
 1900 00a3 0B       		.uleb128 0xb
 1901 00a4 3B       		.uleb128 0x3b
 1902 00a5 05       		.uleb128 0x5
 1903 00a6 49       		.uleb128 0x49
 1904 00a7 13       		.uleb128 0x13
 1905 00a8 38       		.uleb128 0x38
 1906 00a9 0A       		.uleb128 0xa
 1907 00aa 00       		.byte	0
 1908 00ab 00       		.byte	0
 1909 00ac 0F       		.uleb128 0xf
 1910 00ad 04       		.uleb128 0x4
 1911 00ae 01       		.byte	0x1
 1912 00af 0B       		.uleb128 0xb
 1913 00b0 0B       		.uleb128 0xb
 1914 00b1 3A       		.uleb128 0x3a
 1915 00b2 0B       		.uleb128 0xb
 1916 00b3 3B       		.uleb128 0x3b
 1917 00b4 0B       		.uleb128 0xb
 1918 00b5 01       		.uleb128 0x1
 1919 00b6 13       		.uleb128 0x13
 1920 00b7 00       		.byte	0
 1921 00b8 00       		.byte	0
 1922 00b9 10       		.uleb128 0x10
 1923 00ba 13       		.uleb128 0x13
 1924 00bb 01       		.byte	0x1
 1925 00bc 0B       		.uleb128 0xb
 1926 00bd 0B       		.uleb128 0xb
 1927 00be 3A       		.uleb128 0x3a
 1928 00bf 0B       		.uleb128 0xb
 1929 00c0 3B       		.uleb128 0x3b
 1930 00c1 0B       		.uleb128 0xb
 1931 00c2 01       		.uleb128 0x1
 1932 00c3 13       		.uleb128 0x13
 1933 00c4 00       		.byte	0
 1934 00c5 00       		.byte	0
 1935 00c6 11       		.uleb128 0x11
 1936 00c7 0D       		.uleb128 0xd
 1937 00c8 00       		.byte	0
 1938 00c9 03       		.uleb128 0x3
 1939 00ca 0E       		.uleb128 0xe
 1940 00cb 3A       		.uleb128 0x3a
 1941 00cc 0B       		.uleb128 0xb
 1942 00cd 3B       		.uleb128 0x3b
 1943 00ce 0B       		.uleb128 0xb
 1944 00cf 49       		.uleb128 0x49
 1945 00d0 13       		.uleb128 0x13
 1946 00d1 38       		.uleb128 0x38
 1947 00d2 0A       		.uleb128 0xa
 1948 00d3 00       		.byte	0
 1949 00d4 00       		.byte	0
 1950 00d5 12       		.uleb128 0x12
 1951 00d6 2E       		.uleb128 0x2e
ARM GAS  /tmp/cckM5Epi.s 			page 40


 1952 00d7 01       		.byte	0x1
 1953 00d8 3F       		.uleb128 0x3f
 1954 00d9 0C       		.uleb128 0xc
 1955 00da 03       		.uleb128 0x3
 1956 00db 0E       		.uleb128 0xe
 1957 00dc 3A       		.uleb128 0x3a
 1958 00dd 0B       		.uleb128 0xb
 1959 00de 3B       		.uleb128 0x3b
 1960 00df 0B       		.uleb128 0xb
 1961 00e0 27       		.uleb128 0x27
 1962 00e1 0C       		.uleb128 0xc
 1963 00e2 11       		.uleb128 0x11
 1964 00e3 01       		.uleb128 0x1
 1965 00e4 12       		.uleb128 0x12
 1966 00e5 01       		.uleb128 0x1
 1967 00e6 40       		.uleb128 0x40
 1968 00e7 06       		.uleb128 0x6
 1969 00e8 9742     		.uleb128 0x2117
 1970 00ea 0C       		.uleb128 0xc
 1971 00eb 01       		.uleb128 0x1
 1972 00ec 13       		.uleb128 0x13
 1973 00ed 00       		.byte	0
 1974 00ee 00       		.byte	0
 1975 00ef 13       		.uleb128 0x13
 1976 00f0 05       		.uleb128 0x5
 1977 00f1 00       		.byte	0
 1978 00f2 03       		.uleb128 0x3
 1979 00f3 08       		.uleb128 0x8
 1980 00f4 3A       		.uleb128 0x3a
 1981 00f5 0B       		.uleb128 0xb
 1982 00f6 3B       		.uleb128 0x3b
 1983 00f7 0B       		.uleb128 0xb
 1984 00f8 49       		.uleb128 0x49
 1985 00f9 13       		.uleb128 0x13
 1986 00fa 02       		.uleb128 0x2
 1987 00fb 06       		.uleb128 0x6
 1988 00fc 00       		.byte	0
 1989 00fd 00       		.byte	0
 1990 00fe 14       		.uleb128 0x14
 1991 00ff 34       		.uleb128 0x34
 1992 0100 00       		.byte	0
 1993 0101 03       		.uleb128 0x3
 1994 0102 0E       		.uleb128 0xe
 1995 0103 3A       		.uleb128 0x3a
 1996 0104 0B       		.uleb128 0xb
 1997 0105 3B       		.uleb128 0x3b
 1998 0106 0B       		.uleb128 0xb
 1999 0107 49       		.uleb128 0x49
 2000 0108 13       		.uleb128 0x13
 2001 0109 02       		.uleb128 0x2
 2002 010a 0A       		.uleb128 0xa
 2003 010b 00       		.byte	0
 2004 010c 00       		.byte	0
 2005 010d 15       		.uleb128 0x15
 2006 010e 898201   		.uleb128 0x4109
 2007 0111 01       		.byte	0x1
 2008 0112 11       		.uleb128 0x11
ARM GAS  /tmp/cckM5Epi.s 			page 41


 2009 0113 01       		.uleb128 0x1
 2010 0114 31       		.uleb128 0x31
 2011 0115 13       		.uleb128 0x13
 2012 0116 01       		.uleb128 0x1
 2013 0117 13       		.uleb128 0x13
 2014 0118 00       		.byte	0
 2015 0119 00       		.byte	0
 2016 011a 16       		.uleb128 0x16
 2017 011b 8A8201   		.uleb128 0x410a
 2018 011e 00       		.byte	0
 2019 011f 02       		.uleb128 0x2
 2020 0120 0A       		.uleb128 0xa
 2021 0121 9142     		.uleb128 0x2111
 2022 0123 0A       		.uleb128 0xa
 2023 0124 00       		.byte	0
 2024 0125 00       		.byte	0
 2025 0126 17       		.uleb128 0x17
 2026 0127 898201   		.uleb128 0x4109
 2027 012a 01       		.byte	0x1
 2028 012b 11       		.uleb128 0x11
 2029 012c 01       		.uleb128 0x1
 2030 012d 31       		.uleb128 0x31
 2031 012e 13       		.uleb128 0x13
 2032 012f 00       		.byte	0
 2033 0130 00       		.byte	0
 2034 0131 18       		.uleb128 0x18
 2035 0132 2E       		.uleb128 0x2e
 2036 0133 01       		.byte	0x1
 2037 0134 3F       		.uleb128 0x3f
 2038 0135 0C       		.uleb128 0xc
 2039 0136 03       		.uleb128 0x3
 2040 0137 0E       		.uleb128 0xe
 2041 0138 3A       		.uleb128 0x3a
 2042 0139 0B       		.uleb128 0xb
 2043 013a 3B       		.uleb128 0x3b
 2044 013b 0B       		.uleb128 0xb
 2045 013c 27       		.uleb128 0x27
 2046 013d 0C       		.uleb128 0xc
 2047 013e 11       		.uleb128 0x11
 2048 013f 01       		.uleb128 0x1
 2049 0140 12       		.uleb128 0x12
 2050 0141 01       		.uleb128 0x1
 2051 0142 40       		.uleb128 0x40
 2052 0143 0A       		.uleb128 0xa
 2053 0144 9742     		.uleb128 0x2117
 2054 0146 0C       		.uleb128 0xc
 2055 0147 01       		.uleb128 0x1
 2056 0148 13       		.uleb128 0x13
 2057 0149 00       		.byte	0
 2058 014a 00       		.byte	0
 2059 014b 19       		.uleb128 0x19
 2060 014c 05       		.uleb128 0x5
 2061 014d 00       		.byte	0
 2062 014e 03       		.uleb128 0x3
 2063 014f 08       		.uleb128 0x8
 2064 0150 3A       		.uleb128 0x3a
 2065 0151 0B       		.uleb128 0xb
ARM GAS  /tmp/cckM5Epi.s 			page 42


 2066 0152 3B       		.uleb128 0x3b
 2067 0153 0B       		.uleb128 0xb
 2068 0154 49       		.uleb128 0x49
 2069 0155 13       		.uleb128 0x13
 2070 0156 02       		.uleb128 0x2
 2071 0157 0A       		.uleb128 0xa
 2072 0158 00       		.byte	0
 2073 0159 00       		.byte	0
 2074 015a 1A       		.uleb128 0x1a
 2075 015b 05       		.uleb128 0x5
 2076 015c 00       		.byte	0
 2077 015d 03       		.uleb128 0x3
 2078 015e 0E       		.uleb128 0xe
 2079 015f 3A       		.uleb128 0x3a
 2080 0160 0B       		.uleb128 0xb
 2081 0161 3B       		.uleb128 0x3b
 2082 0162 0B       		.uleb128 0xb
 2083 0163 49       		.uleb128 0x49
 2084 0164 13       		.uleb128 0x13
 2085 0165 02       		.uleb128 0x2
 2086 0166 06       		.uleb128 0x6
 2087 0167 00       		.byte	0
 2088 0168 00       		.byte	0
 2089 0169 1B       		.uleb128 0x1b
 2090 016a 2E       		.uleb128 0x2e
 2091 016b 01       		.byte	0x1
 2092 016c 3F       		.uleb128 0x3f
 2093 016d 0C       		.uleb128 0xc
 2094 016e 03       		.uleb128 0x3
 2095 016f 0E       		.uleb128 0xe
 2096 0170 3A       		.uleb128 0x3a
 2097 0171 0B       		.uleb128 0xb
 2098 0172 3B       		.uleb128 0x3b
 2099 0173 0B       		.uleb128 0xb
 2100 0174 27       		.uleb128 0x27
 2101 0175 0C       		.uleb128 0xc
 2102 0176 49       		.uleb128 0x49
 2103 0177 13       		.uleb128 0x13
 2104 0178 11       		.uleb128 0x11
 2105 0179 01       		.uleb128 0x1
 2106 017a 12       		.uleb128 0x12
 2107 017b 01       		.uleb128 0x1
 2108 017c 40       		.uleb128 0x40
 2109 017d 06       		.uleb128 0x6
 2110 017e 9742     		.uleb128 0x2117
 2111 0180 0C       		.uleb128 0xc
 2112 0181 01       		.uleb128 0x1
 2113 0182 13       		.uleb128 0x13
 2114 0183 00       		.byte	0
 2115 0184 00       		.byte	0
 2116 0185 1C       		.uleb128 0x1c
 2117 0186 34       		.uleb128 0x34
 2118 0187 00       		.byte	0
 2119 0188 03       		.uleb128 0x3
 2120 0189 0E       		.uleb128 0xe
 2121 018a 3A       		.uleb128 0x3a
 2122 018b 0B       		.uleb128 0xb
ARM GAS  /tmp/cckM5Epi.s 			page 43


 2123 018c 3B       		.uleb128 0x3b
 2124 018d 05       		.uleb128 0x5
 2125 018e 49       		.uleb128 0x49
 2126 018f 13       		.uleb128 0x13
 2127 0190 3F       		.uleb128 0x3f
 2128 0191 0C       		.uleb128 0xc
 2129 0192 3C       		.uleb128 0x3c
 2130 0193 0C       		.uleb128 0xc
 2131 0194 00       		.byte	0
 2132 0195 00       		.byte	0
 2133 0196 1D       		.uleb128 0x1d
 2134 0197 0F       		.uleb128 0xf
 2135 0198 00       		.byte	0
 2136 0199 0B       		.uleb128 0xb
 2137 019a 0B       		.uleb128 0xb
 2138 019b 49       		.uleb128 0x49
 2139 019c 13       		.uleb128 0x13
 2140 019d 00       		.byte	0
 2141 019e 00       		.byte	0
 2142 019f 1E       		.uleb128 0x1e
 2143 01a0 34       		.uleb128 0x34
 2144 01a1 00       		.byte	0
 2145 01a2 03       		.uleb128 0x3
 2146 01a3 0E       		.uleb128 0xe
 2147 01a4 3A       		.uleb128 0x3a
 2148 01a5 0B       		.uleb128 0xb
 2149 01a6 3B       		.uleb128 0x3b
 2150 01a7 0B       		.uleb128 0xb
 2151 01a8 49       		.uleb128 0x49
 2152 01a9 13       		.uleb128 0x13
 2153 01aa 3F       		.uleb128 0x3f
 2154 01ab 0C       		.uleb128 0xc
 2155 01ac 02       		.uleb128 0x2
 2156 01ad 0A       		.uleb128 0xa
 2157 01ae 00       		.byte	0
 2158 01af 00       		.byte	0
 2159 01b0 1F       		.uleb128 0x1f
 2160 01b1 26       		.uleb128 0x26
 2161 01b2 00       		.byte	0
 2162 01b3 49       		.uleb128 0x49
 2163 01b4 13       		.uleb128 0x13
 2164 01b5 00       		.byte	0
 2165 01b6 00       		.byte	0
 2166 01b7 20       		.uleb128 0x20
 2167 01b8 2E       		.uleb128 0x2e
 2168 01b9 01       		.byte	0x1
 2169 01ba 3F       		.uleb128 0x3f
 2170 01bb 0C       		.uleb128 0xc
 2171 01bc 03       		.uleb128 0x3
 2172 01bd 0E       		.uleb128 0xe
 2173 01be 3A       		.uleb128 0x3a
 2174 01bf 0B       		.uleb128 0xb
 2175 01c0 3B       		.uleb128 0x3b
 2176 01c1 05       		.uleb128 0x5
 2177 01c2 27       		.uleb128 0x27
 2178 01c3 0C       		.uleb128 0xc
 2179 01c4 3C       		.uleb128 0x3c
ARM GAS  /tmp/cckM5Epi.s 			page 44


 2180 01c5 0C       		.uleb128 0xc
 2181 01c6 01       		.uleb128 0x1
 2182 01c7 13       		.uleb128 0x13
 2183 01c8 00       		.byte	0
 2184 01c9 00       		.byte	0
 2185 01ca 21       		.uleb128 0x21
 2186 01cb 05       		.uleb128 0x5
 2187 01cc 00       		.byte	0
 2188 01cd 49       		.uleb128 0x49
 2189 01ce 13       		.uleb128 0x13
 2190 01cf 00       		.byte	0
 2191 01d0 00       		.byte	0
 2192 01d1 22       		.uleb128 0x22
 2193 01d2 2E       		.uleb128 0x2e
 2194 01d3 01       		.byte	0x1
 2195 01d4 3F       		.uleb128 0x3f
 2196 01d5 0C       		.uleb128 0xc
 2197 01d6 03       		.uleb128 0x3
 2198 01d7 0E       		.uleb128 0xe
 2199 01d8 3A       		.uleb128 0x3a
 2200 01d9 0B       		.uleb128 0xb
 2201 01da 3B       		.uleb128 0x3b
 2202 01db 0B       		.uleb128 0xb
 2203 01dc 27       		.uleb128 0x27
 2204 01dd 0C       		.uleb128 0xc
 2205 01de 3C       		.uleb128 0x3c
 2206 01df 0C       		.uleb128 0xc
 2207 01e0 01       		.uleb128 0x1
 2208 01e1 13       		.uleb128 0x13
 2209 01e2 00       		.byte	0
 2210 01e3 00       		.byte	0
 2211 01e4 23       		.uleb128 0x23
 2212 01e5 2E       		.uleb128 0x2e
 2213 01e6 01       		.byte	0x1
 2214 01e7 3F       		.uleb128 0x3f
 2215 01e8 0C       		.uleb128 0xc
 2216 01e9 03       		.uleb128 0x3
 2217 01ea 0E       		.uleb128 0xe
 2218 01eb 3A       		.uleb128 0x3a
 2219 01ec 0B       		.uleb128 0xb
 2220 01ed 3B       		.uleb128 0x3b
 2221 01ee 05       		.uleb128 0x5
 2222 01ef 27       		.uleb128 0x27
 2223 01f0 0C       		.uleb128 0xc
 2224 01f1 49       		.uleb128 0x49
 2225 01f2 13       		.uleb128 0x13
 2226 01f3 3C       		.uleb128 0x3c
 2227 01f4 0C       		.uleb128 0xc
 2228 01f5 00       		.byte	0
 2229 01f6 00       		.byte	0
 2230 01f7 00       		.byte	0
 2231              		.section	.debug_loc,"",%progbits
 2232              	.Ldebug_loc0:
 2233              	.LLST0:
 2234 0000 00000000 		.4byte	.LFB56-.Ltext0
 2235 0004 02000000 		.4byte	.LCFI0-.Ltext0
 2236 0008 0200     		.2byte	0x2
ARM GAS  /tmp/cckM5Epi.s 			page 45


 2237 000a 7D       		.byte	0x7d
 2238 000b 00       		.sleb128 0
 2239 000c 02000000 		.4byte	.LCFI0-.Ltext0
 2240 0010 06000000 		.4byte	.LCFI1-.Ltext0
 2241 0014 0200     		.2byte	0x2
 2242 0016 7D       		.byte	0x7d
 2243 0017 0C       		.sleb128 12
 2244 0018 06000000 		.4byte	.LCFI1-.Ltext0
 2245 001c 48000000 		.4byte	.LFE56-.Ltext0
 2246 0020 0200     		.2byte	0x2
 2247 0022 7D       		.byte	0x7d
 2248 0023 18       		.sleb128 24
 2249 0024 00000000 		.4byte	0
 2250 0028 00000000 		.4byte	0
 2251              	.LLST1:
 2252 002c 00000000 		.4byte	.LVL0-.Ltext0
 2253 0030 0E000000 		.4byte	.LVL1-.Ltext0
 2254 0034 0100     		.2byte	0x1
 2255 0036 50       		.byte	0x50
 2256 0037 0E000000 		.4byte	.LVL1-.Ltext0
 2257 003b 48000000 		.4byte	.LFE56-.Ltext0
 2258 003f 0400     		.2byte	0x4
 2259 0041 F3       		.byte	0xf3
 2260 0042 01       		.uleb128 0x1
 2261 0043 50       		.byte	0x50
 2262 0044 9F       		.byte	0x9f
 2263 0045 00000000 		.4byte	0
 2264 0049 00000000 		.4byte	0
 2265              	.LLST2:
 2266 004d 80000000 		.4byte	.LVL6-.Ltext0
 2267 0051 8C000000 		.4byte	.LVL7-.Ltext0
 2268 0055 0100     		.2byte	0x1
 2269 0057 50       		.byte	0x50
 2270 0058 8C000000 		.4byte	.LVL7-.Ltext0
 2271 005c A0000000 		.4byte	.LFE59-.Ltext0
 2272 0060 0400     		.2byte	0x4
 2273 0062 F3       		.byte	0xf3
 2274 0063 01       		.uleb128 0x1
 2275 0064 50       		.byte	0x50
 2276 0065 9F       		.byte	0x9f
 2277 0066 00000000 		.4byte	0
 2278 006a 00000000 		.4byte	0
 2279              	.LLST3:
 2280 006e A0000000 		.4byte	.LFB60-.Ltext0
 2281 0072 A2000000 		.4byte	.LCFI2-.Ltext0
 2282 0076 0200     		.2byte	0x2
 2283 0078 7D       		.byte	0x7d
 2284 0079 00       		.sleb128 0
 2285 007a A2000000 		.4byte	.LCFI2-.Ltext0
 2286 007e A8000000 		.4byte	.LCFI3-.Ltext0
 2287 0082 0200     		.2byte	0x2
 2288 0084 7D       		.byte	0x7d
 2289 0085 10       		.sleb128 16
 2290 0086 A8000000 		.4byte	.LCFI3-.Ltext0
 2291 008a 28010000 		.4byte	.LFE60-.Ltext0
 2292 008e 0200     		.2byte	0x2
 2293 0090 7D       		.byte	0x7d
ARM GAS  /tmp/cckM5Epi.s 			page 46


 2294 0091 28       		.sleb128 40
 2295 0092 00000000 		.4byte	0
 2296 0096 00000000 		.4byte	0
 2297              	.LLST4:
 2298 009a A0000000 		.4byte	.LVL8-.Ltext0
 2299 009e A6000000 		.4byte	.LVL9-.Ltext0
 2300 00a2 0100     		.2byte	0x1
 2301 00a4 50       		.byte	0x50
 2302 00a5 A6000000 		.4byte	.LVL9-.Ltext0
 2303 00a9 28010000 		.4byte	.LFE60-.Ltext0
 2304 00ad 0400     		.2byte	0x4
 2305 00af F3       		.byte	0xf3
 2306 00b0 01       		.uleb128 0x1
 2307 00b1 50       		.byte	0x50
 2308 00b2 9F       		.byte	0x9f
 2309 00b3 00000000 		.4byte	0
 2310 00b7 00000000 		.4byte	0
 2311              	.LLST5:
 2312 00bb A0000000 		.4byte	.LVL8-.Ltext0
 2313 00bf AC000000 		.4byte	.LVL10-.Ltext0
 2314 00c3 0100     		.2byte	0x1
 2315 00c5 51       		.byte	0x51
 2316 00c6 AC000000 		.4byte	.LVL10-.Ltext0
 2317 00ca 28010000 		.4byte	.LFE60-.Ltext0
 2318 00ce 0400     		.2byte	0x4
 2319 00d0 F3       		.byte	0xf3
 2320 00d1 01       		.uleb128 0x1
 2321 00d2 51       		.byte	0x51
 2322 00d3 9F       		.byte	0x9f
 2323 00d4 00000000 		.4byte	0
 2324 00d8 00000000 		.4byte	0
 2325              	.LLST6:
 2326 00dc 28010000 		.4byte	.LFB61-.Ltext0
 2327 00e0 2A010000 		.4byte	.LCFI4-.Ltext0
 2328 00e4 0200     		.2byte	0x2
 2329 00e6 7D       		.byte	0x7d
 2330 00e7 00       		.sleb128 0
 2331 00e8 2A010000 		.4byte	.LCFI4-.Ltext0
 2332 00ec 40010000 		.4byte	.LFE61-.Ltext0
 2333 00f0 0200     		.2byte	0x2
 2334 00f2 7D       		.byte	0x7d
 2335 00f3 08       		.sleb128 8
 2336 00f4 00000000 		.4byte	0
 2337 00f8 00000000 		.4byte	0
 2338              	.LLST7:
 2339 00fc 28010000 		.4byte	.LVL17-.Ltext0
 2340 0100 32010000 		.4byte	.LVL18-.Ltext0
 2341 0104 0100     		.2byte	0x1
 2342 0106 50       		.byte	0x50
 2343 0107 32010000 		.4byte	.LVL18-.Ltext0
 2344 010b 40010000 		.4byte	.LFE61-.Ltext0
 2345 010f 0400     		.2byte	0x4
 2346 0111 F3       		.byte	0xf3
 2347 0112 01       		.uleb128 0x1
 2348 0113 50       		.byte	0x50
 2349 0114 9F       		.byte	0x9f
 2350 0115 00000000 		.4byte	0
ARM GAS  /tmp/cckM5Epi.s 			page 47


 2351 0119 00000000 		.4byte	0
 2352              		.section	.debug_aranges,"",%progbits
 2353 0000 1C000000 		.4byte	0x1c
 2354 0004 0200     		.2byte	0x2
 2355 0006 00000000 		.4byte	.Ldebug_info0
 2356 000a 04       		.byte	0x4
 2357 000b 00       		.byte	0
 2358 000c 0000     		.2byte	0
 2359 000e 0000     		.2byte	0
 2360 0010 00000000 		.4byte	.Ltext0
 2361 0014 40010000 		.4byte	.Letext0-.Ltext0
 2362 0018 00000000 		.4byte	0
 2363 001c 00000000 		.4byte	0
 2364              		.section	.debug_line,"",%progbits
 2365              	.Ldebug_line0:
 2366 0000 C7010000 		.section	.debug_str,"MS",%progbits,1
 2366      02006001 
 2366      00000201 
 2366      FB0E0D00 
 2366      01010101 
 2367              	.LASF67:
 2368 0000 73686F72 		.ascii	"short int\000"
 2368      7420696E 
 2368      7400
 2369              	.LASF86:
 2370 000a 50555044 		.ascii	"PUPDR\000"
 2370      5200
 2371              	.LASF170:
 2372 0010 474E5520 		.ascii	"GNU C 4.8.3 20131129 (release) [ARM/embedded-4_8-br"
 2372      4320342E 
 2372      382E3320 
 2372      32303133 
 2372      31313239 
 2373 0043 616E6368 		.ascii	"anch revision 205641] -mcpu=cortex-m3 -mthumb -g -g"
 2373      20726576 
 2373      6973696F 
 2373      6E203230 
 2373      35363431 
 2374 0076 64776172 		.ascii	"dwarf-2 -O3 -std=c99 -fomit-frame-pointer\000"
 2374      662D3220 
 2374      2D4F3320 
 2374      2D737464 
 2374      3D633939 
 2375              	.LASF132:
 2376 00a0 4E564943 		.ascii	"NVIC_IRQChannelCmd\000"
 2376      5F495251 
 2376      4368616E 
 2376      6E656C43 
 2376      6D6400
 2377              	.LASF9:
 2378 00b3 5056445F 		.ascii	"PVD_IRQn\000"
 2378      4952516E 
 2378      00
 2379              	.LASF24:
 2380 00bc 444D4131 		.ascii	"DMA1_Channel6_IRQn\000"
 2380      5F436861 
 2380      6E6E656C 
ARM GAS  /tmp/cckM5Epi.s 			page 48


 2380      365F4952 
 2380      516E00
 2381              	.LASF146:
 2382 00cf 53544D5F 		.ascii	"STM_EVAL_PBInit\000"
 2382      4556414C 
 2382      5F504249 
 2382      6E697400 
 2383              	.LASF154:
 2384 00df 4750494F 		.ascii	"GPIO_PIN\000"
 2384      5F50494E 
 2384      00
 2385              	.LASF30:
 2386 00e8 434F4D50 		.ascii	"COMP_IRQn\000"
 2386      5F495251 
 2386      6E00
 2387              	.LASF104:
 2388 00f2 45585449 		.ascii	"EXTI_LineCmd\000"
 2388      5F4C696E 
 2388      65436D64 
 2388      00
 2389              	.LASF39:
 2390 00ff 49324331 		.ascii	"I2C1_EV_IRQn\000"
 2390      5F45565F 
 2390      4952516E 
 2390      00
 2391              	.LASF111:
 2392 010c 4750494F 		.ascii	"GPIO_OType_PP\000"
 2392      5F4F5479 
 2392      70655F50 
 2392      5000
 2393              	.LASF116:
 2394 011a 4750494F 		.ascii	"GPIO_Speed_10MHz\000"
 2394      5F537065 
 2394      65645F31 
 2394      304D487A 
 2394      00
 2395              	.LASF83:
 2396 012b 4F545950 		.ascii	"OTYPER\000"
 2396      455200
 2397              	.LASF156:
 2398 0132 42555454 		.ascii	"BUTTON_PORT\000"
 2398      4F4E5F50 
 2398      4F525400 
 2399              	.LASF99:
 2400 013e 45585449 		.ascii	"EXTI_Trigger_Rising_Falling\000"
 2400      5F547269 
 2400      67676572 
 2400      5F526973 
 2400      696E675F 
 2401              	.LASF137:
 2402 015a 42555454 		.ascii	"BUTTON_USER\000"
 2402      4F4E5F55 
 2402      53455200 
 2403              	.LASF172:
 2404 0166 2F686F6D 		.ascii	"/home/zbanks/hackboard/firmware\000"
 2404      652F7A62 
 2404      616E6B73 
ARM GAS  /tmp/cckM5Epi.s 			page 49


 2404      2F686163 
 2404      6B626F61 
 2405              	.LASF82:
 2406 0186 4D4F4445 		.ascii	"MODER\000"
 2406      5200
 2407              	.LASF76:
 2408 018c 6C6F6E67 		.ascii	"long long unsigned int\000"
 2408      206C6F6E 
 2408      6720756E 
 2408      7369676E 
 2408      65642069 
 2409              	.LASF58:
 2410 01a3 444D4132 		.ascii	"DMA2_Channel1_IRQn\000"
 2410      5F436861 
 2410      6E6E656C 
 2410      315F4952 
 2410      516E00
 2411              	.LASF108:
 2412 01b6 4750494F 		.ascii	"GPIO_Mode_AF\000"
 2412      5F4D6F64 
 2412      655F4146 
 2412      00
 2413              	.LASF49:
 2414 01c3 5254435F 		.ascii	"RTC_Alarm_IRQn\000"
 2414      416C6172 
 2414      6D5F4952 
 2414      516E00
 2415              	.LASF125:
 2416 01d2 4750494F 		.ascii	"GPIO_Speed\000"
 2416      5F537065 
 2416      656400
 2417              	.LASF42:
 2418 01dd 49324332 		.ascii	"I2C2_ER_IRQn\000"
 2418      5F45525F 
 2418      4952516E 
 2418      00
 2419              	.LASF147:
 2420 01ea 42757474 		.ascii	"Button\000"
 2420      6F6E00
 2421              	.LASF109:
 2422 01f1 4750494F 		.ascii	"GPIO_Mode_AN\000"
 2422      5F4D6F64 
 2422      655F414E 
 2422      00
 2423              	.LASF11:
 2424 01fe 5254435F 		.ascii	"RTC_WKUP_IRQn\000"
 2424      574B5550 
 2424      5F495251 
 2424      6E00
 2425              	.LASF8:
 2426 020c 57574447 		.ascii	"WWDG_IRQn\000"
 2426      5F495251 
 2426      6E00
 2427              	.LASF53:
 2428 0216 5344494F 		.ascii	"SDIO_IRQn\000"
 2428      5F495251 
 2428      6E00
ARM GAS  /tmp/cckM5Epi.s 			page 50


 2429              	.LASF75:
 2430 0220 6C6F6E67 		.ascii	"long long int\000"
 2430      206C6F6E 
 2430      6720696E 
 2430      7400
 2431              	.LASF65:
 2432 022e 7369676E 		.ascii	"signed char\000"
 2432      65642063 
 2432      68617200 
 2433              	.LASF106:
 2434 023a 4750494F 		.ascii	"GPIO_Mode_IN\000"
 2434      5F4D6F64 
 2434      655F494E 
 2434      00
 2435              	.LASF62:
 2436 0247 444D4132 		.ascii	"DMA2_Channel5_IRQn\000"
 2436      5F436861 
 2436      6E6E656C 
 2436      355F4952 
 2436      516E00
 2437              	.LASF72:
 2438 025a 6C6F6E67 		.ascii	"long int\000"
 2438      20696E74 
 2438      00
 2439              	.LASF41:
 2440 0263 49324332 		.ascii	"I2C2_EV_IRQn\000"
 2440      5F45565F 
 2440      4952516E 
 2440      00
 2441              	.LASF96:
 2442 0270 45585449 		.ascii	"EXTIMode_TypeDef\000"
 2442      4D6F6465 
 2442      5F547970 
 2442      65446566 
 2442      00
 2443              	.LASF162:
 2444 0281 42555454 		.ascii	"BUTTON_IRQn\000"
 2444      4F4E5F49 
 2444      52516E00 
 2445              	.LASF31:
 2446 028d 45585449 		.ascii	"EXTI9_5_IRQn\000"
 2446      395F355F 
 2446      4952516E 
 2446      00
 2447              	.LASF80:
 2448 029a 454E4142 		.ascii	"ENABLE\000"
 2448      4C4500
 2449              	.LASF166:
 2450 02a1 53595343 		.ascii	"SYSCFG_EXTILineConfig\000"
 2450      46475F45 
 2450      5854494C 
 2450      696E6543 
 2450      6F6E6669 
 2451              	.LASF69:
 2452 02b7 75696E74 		.ascii	"uint16_t\000"
 2452      31365F74 
 2452      00
ARM GAS  /tmp/cckM5Epi.s 			page 51


 2453              	.LASF140:
 2454 02c0 42555454 		.ascii	"BUTTON_MODE_EXTI\000"
 2454      4F4E5F4D 
 2454      4F44455F 
 2454      45585449 
 2454      00
 2455              	.LASF17:
 2456 02d1 45585449 		.ascii	"EXTI3_IRQn\000"
 2456      335F4952 
 2456      516E00
 2457              	.LASF63:
 2458 02dc 4145535F 		.ascii	"AES_IRQn\000"
 2458      4952516E 
 2458      00
 2459              	.LASF34:
 2460 02e5 54494D31 		.ascii	"TIM10_IRQn\000"
 2460      305F4952 
 2460      516E00
 2461              	.LASF141:
 2462 02f0 42757474 		.ascii	"ButtonMode_TypeDef\000"
 2462      6F6E4D6F 
 2462      64655F54 
 2462      79706544 
 2462      656600
 2463              	.LASF56:
 2464 0303 55415254 		.ascii	"UART4_IRQn\000"
 2464      345F4952 
 2464      516E00
 2465              	.LASF6:
 2466 030e 50656E64 		.ascii	"PendSV_IRQn\000"
 2466      53565F49 
 2466      52516E00 
 2467              	.LASF113:
 2468 031a 4750494F 		.ascii	"GPIOOType_TypeDef\000"
 2468      4F547970 
 2468      655F5479 
 2468      70654465 
 2468      6600
 2469              	.LASF22:
 2470 032c 444D4131 		.ascii	"DMA1_Channel4_IRQn\000"
 2470      5F436861 
 2470      6E6E656C 
 2470      345F4952 
 2470      516E00
 2471              	.LASF169:
 2472 033f 4750494F 		.ascii	"GPIO_ReadInputDataBit\000"
 2472      5F526561 
 2472      64496E70 
 2472      75744461 
 2472      74614269 
 2473              	.LASF2:
 2474 0355 42757346 		.ascii	"BusFault_IRQn\000"
 2474      61756C74 
 2474      5F495251 
 2474      6E00
 2475              	.LASF27:
 2476 0363 5553425F 		.ascii	"USB_HP_IRQn\000"
ARM GAS  /tmp/cckM5Epi.s 			page 52


 2476      48505F49 
 2476      52516E00 
 2477              	.LASF118:
 2478 036f 4750494F 		.ascii	"GPIOSpeed_TypeDef\000"
 2478      53706565 
 2478      645F5479 
 2478      70654465 
 2478      6600
 2479              	.LASF81:
 2480 0381 46756E63 		.ascii	"FunctionalState\000"
 2480      74696F6E 
 2480      616C5374 
 2480      61746500 
 2481              	.LASF151:
 2482 0391 4E564943 		.ascii	"NVIC_InitStructure\000"
 2482      5F496E69 
 2482      74537472 
 2482      75637475 
 2482      726500
 2483              	.LASF33:
 2484 03a4 54494D39 		.ascii	"TIM9_IRQn\000"
 2484      5F495251 
 2484      6E00
 2485              	.LASF167:
 2486 03ae 45585449 		.ascii	"EXTI_Init\000"
 2486      5F496E69 
 2486      7400
 2487              	.LASF1:
 2488 03b8 4D656D6F 		.ascii	"MemoryManagement_IRQn\000"
 2488      72794D61 
 2488      6E616765 
 2488      6D656E74 
 2488      5F495251 
 2489              	.LASF74:
 2490 03ce 6C6F6E67 		.ascii	"long unsigned int\000"
 2490      20756E73 
 2490      69676E65 
 2490      6420696E 
 2490      7400
 2491              	.LASF93:
 2492 03e0 4750494F 		.ascii	"GPIO_TypeDef\000"
 2492      5F547970 
 2492      65446566 
 2492      00
 2493              	.LASF91:
 2494 03ed 4C434B52 		.ascii	"LCKR\000"
 2494      00
 2495              	.LASF23:
 2496 03f2 444D4131 		.ascii	"DMA1_Channel5_IRQn\000"
 2496      5F436861 
 2496      6E6E656C 
 2496      355F4952 
 2496      516E00
 2497              	.LASF70:
 2498 0405 73686F72 		.ascii	"short unsigned int\000"
 2498      7420756E 
 2498      7369676E 
ARM GAS  /tmp/cckM5Epi.s 			page 53


 2498      65642069 
 2498      6E7400
 2499              	.LASF48:
 2500 0418 45585449 		.ascii	"EXTI15_10_IRQn\000"
 2500      31355F31 
 2500      305F4952 
 2500      516E00
 2501              	.LASF122:
 2502 0427 4750494F 		.ascii	"GPIOPuPd_TypeDef\000"
 2502      50755064 
 2502      5F547970 
 2502      65446566 
 2502      00
 2503              	.LASF161:
 2504 0438 42555454 		.ascii	"BUTTON_PIN_SOURCE\000"
 2504      4F4E5F50 
 2504      494E5F53 
 2504      4F555243 
 2504      4500
 2505              	.LASF43:
 2506 044a 53504931 		.ascii	"SPI1_IRQn\000"
 2506      5F495251 
 2506      6E00
 2507              	.LASF129:
 2508 0454 4E564943 		.ascii	"NVIC_IRQChannel\000"
 2508      5F495251 
 2508      4368616E 
 2508      6E656C00 
 2509              	.LASF130:
 2510 0464 4E564943 		.ascii	"NVIC_IRQChannelPreemptionPriority\000"
 2510      5F495251 
 2510      4368616E 
 2510      6E656C50 
 2510      7265656D 
 2511              	.LASF7:
 2512 0486 53797354 		.ascii	"SysTick_IRQn\000"
 2512      69636B5F 
 2512      4952516E 
 2512      00
 2513              	.LASF119:
 2514 0493 4750494F 		.ascii	"GPIO_PuPd_NOPULL\000"
 2514      5F507550 
 2514      645F4E4F 
 2514      50554C4C 
 2514      00
 2515              	.LASF64:
 2516 04a4 434F4D50 		.ascii	"COMP_ACQ_IRQn\000"
 2516      5F414351 
 2516      5F495251 
 2516      6E00
 2517              	.LASF133:
 2518 04b2 4E564943 		.ascii	"NVIC_InitTypeDef\000"
 2518      5F496E69 
 2518      74547970 
 2518      65446566 
 2518      00
 2519              	.LASF173:
ARM GAS  /tmp/cckM5Epi.s 			page 54


 2520 04c3 4952516E 		.ascii	"IRQn\000"
 2520      00
 2521              	.LASF20:
 2522 04c8 444D4131 		.ascii	"DMA1_Channel2_IRQn\000"
 2522      5F436861 
 2522      6E6E656C 
 2522      325F4952 
 2522      516E00
 2523              	.LASF78:
 2524 04db 73697A65 		.ascii	"sizetype\000"
 2524      74797065 
 2524      00
 2525              	.LASF126:
 2526 04e4 4750494F 		.ascii	"GPIO_OType\000"
 2526      5F4F5479 
 2526      706500
 2527              	.LASF164:
 2528 04ef 4750494F 		.ascii	"GPIO_Init\000"
 2528      5F496E69 
 2528      7400
 2529              	.LASF59:
 2530 04f9 444D4132 		.ascii	"DMA2_Channel2_IRQn\000"
 2530      5F436861 
 2530      6E6E656C 
 2530      325F4952 
 2530      516E00
 2531              	.LASF142:
 2532 050c 53544D5F 		.ascii	"STM_EVAL_LEDInit\000"
 2532      4556414C 
 2532      5F4C4544 
 2532      496E6974 
 2532      00
 2533              	.LASF136:
 2534 051d 4C65645F 		.ascii	"Led_TypeDef\000"
 2534      54797065 
 2534      44656600 
 2535              	.LASF101:
 2536 0529 45585449 		.ascii	"EXTI_Line\000"
 2536      5F4C696E 
 2536      6500
 2537              	.LASF54:
 2538 0533 54494D35 		.ascii	"TIM5_IRQn\000"
 2538      5F495251 
 2538      6E00
 2539              	.LASF148:
 2540 053d 42757474 		.ascii	"Button_Mode\000"
 2540      6F6E5F4D 
 2540      6F646500 
 2541              	.LASF174:
 2542 0549 53544D5F 		.ascii	"STM_EVAL_PBGetState\000"
 2542      4556414C 
 2542      5F504247 
 2542      65745374 
 2542      61746500 
 2543              	.LASF44:
 2544 055d 53504932 		.ascii	"SPI2_IRQn\000"
 2544      5F495251 
ARM GAS  /tmp/cckM5Epi.s 			page 55


 2544      6E00
 2545              	.LASF149:
 2546 0567 4750494F 		.ascii	"GPIO_InitStructure\000"
 2546      5F496E69 
 2546      74537472 
 2546      75637475 
 2546      726500
 2547              	.LASF128:
 2548 057a 4750494F 		.ascii	"GPIO_InitTypeDef\000"
 2548      5F496E69 
 2548      74547970 
 2548      65446566 
 2548      00
 2549              	.LASF85:
 2550 058b 4F535045 		.ascii	"OSPEEDR\000"
 2550      45445200 
 2551              	.LASF50:
 2552 0593 5553425F 		.ascii	"USB_FS_WKUP_IRQn\000"
 2552      46535F57 
 2552      4B55505F 
 2552      4952516E 
 2552      00
 2553              	.LASF26:
 2554 05a4 41444331 		.ascii	"ADC1_IRQn\000"
 2554      5F495251 
 2554      6E00
 2555              	.LASF103:
 2556 05ae 45585449 		.ascii	"EXTI_Trigger\000"
 2556      5F547269 
 2556      67676572 
 2556      00
 2557              	.LASF143:
 2558 05bb 53544D5F 		.ascii	"STM_EVAL_LEDOn\000"
 2558      4556414C 
 2558      5F4C4544 
 2558      4F6E00
 2559              	.LASF150:
 2560 05ca 45585449 		.ascii	"EXTI_InitStructure\000"
 2560      5F496E69 
 2560      74537472 
 2560      75637475 
 2560      726500
 2561              	.LASF19:
 2562 05dd 444D4131 		.ascii	"DMA1_Channel1_IRQn\000"
 2562      5F436861 
 2562      6E6E656C 
 2562      315F4952 
 2562      516E00
 2563              	.LASF102:
 2564 05f0 45585449 		.ascii	"EXTI_Mode\000"
 2564      5F4D6F64 
 2564      6500
 2565              	.LASF94:
 2566 05fa 45585449 		.ascii	"EXTI_Mode_Interrupt\000"
 2566      5F4D6F64 
 2566      655F496E 
 2566      74657272 
ARM GAS  /tmp/cckM5Epi.s 			page 56


 2566      75707400 
 2567              	.LASF84:
 2568 060e 52455345 		.ascii	"RESERVED0\000"
 2568      52564544 
 2568      3000
 2569              	.LASF87:
 2570 0618 52455345 		.ascii	"RESERVED1\000"
 2570      52564544 
 2570      3100
 2571              	.LASF88:
 2572 0622 52455345 		.ascii	"RESERVED2\000"
 2572      52564544 
 2572      3200
 2573              	.LASF92:
 2574 062c 52455345 		.ascii	"RESERVED3\000"
 2574      52564544 
 2574      3300
 2575              	.LASF45:
 2576 0636 55534152 		.ascii	"USART1_IRQn\000"
 2576      54315F49 
 2576      52516E00 
 2577              	.LASF60:
 2578 0642 444D4132 		.ascii	"DMA2_Channel3_IRQn\000"
 2578      5F436861 
 2578      6E6E656C 
 2578      335F4952 
 2578      516E00
 2579              	.LASF71:
 2580 0655 696E7433 		.ascii	"int32_t\000"
 2580      325F7400 
 2581              	.LASF66:
 2582 065d 756E7369 		.ascii	"unsigned char\000"
 2582      676E6564 
 2582      20636861 
 2582      7200
 2583              	.LASF152:
 2584 066b 49544D5F 		.ascii	"ITM_RxBuffer\000"
 2584      52784275 
 2584      66666572 
 2584      00
 2585              	.LASF51:
 2586 0678 54494D36 		.ascii	"TIM6_IRQn\000"
 2586      5F495251 
 2586      6E00
 2587              	.LASF18:
 2588 0682 45585449 		.ascii	"EXTI4_IRQn\000"
 2588      345F4952 
 2588      516E00
 2589              	.LASF98:
 2590 068d 45585449 		.ascii	"EXTI_Trigger_Falling\000"
 2590      5F547269 
 2590      67676572 
 2590      5F46616C 
 2590      6C696E67 
 2591              	.LASF115:
 2592 06a2 4750494F 		.ascii	"GPIO_Speed_2MHz\000"
 2592      5F537065 
ARM GAS  /tmp/cckM5Epi.s 			page 57


 2592      65645F32 
 2592      4D487A00 
 2593              	.LASF35:
 2594 06b2 54494D31 		.ascii	"TIM11_IRQn\000"
 2594      315F4952 
 2594      516E00
 2595              	.LASF134:
 2596 06bd 4C454433 		.ascii	"LED3\000"
 2596      00
 2597              	.LASF135:
 2598 06c2 4C454434 		.ascii	"LED4\000"
 2598      00
 2599              	.LASF57:
 2600 06c7 55415254 		.ascii	"UART5_IRQn\000"
 2600      355F4952 
 2600      516E00
 2601              	.LASF21:
 2602 06d2 444D4131 		.ascii	"DMA1_Channel3_IRQn\000"
 2602      5F436861 
 2602      6E6E656C 
 2602      335F4952 
 2602      516E00
 2603              	.LASF16:
 2604 06e5 45585449 		.ascii	"EXTI2_IRQn\000"
 2604      325F4952 
 2604      516E00
 2605              	.LASF79:
 2606 06f0 44495341 		.ascii	"DISABLE\000"
 2606      424C4500 
 2607              	.LASF160:
 2608 06f8 42555454 		.ascii	"BUTTON_PORT_SOURCE\000"
 2608      4F4E5F50 
 2608      4F52545F 
 2608      534F5552 
 2608      434500
 2609              	.LASF12:
 2610 070b 464C4153 		.ascii	"FLASH_IRQn\000"
 2610      485F4952 
 2610      516E00
 2611              	.LASF73:
 2612 0716 75696E74 		.ascii	"uint32_t\000"
 2612      33325F74 
 2612      00
 2613              	.LASF131:
 2614 071f 4E564943 		.ascii	"NVIC_IRQChannelSubPriority\000"
 2614      5F495251 
 2614      4368616E 
 2614      6E656C53 
 2614      75625072 
 2615              	.LASF46:
 2616 073a 55534152 		.ascii	"USART2_IRQn\000"
 2616      54325F49 
 2616      52516E00 
 2617              	.LASF3:
 2618 0746 55736167 		.ascii	"UsageFault_IRQn\000"
 2618      65466175 
 2618      6C745F49 
ARM GAS  /tmp/cckM5Epi.s 			page 58


 2618      52516E00 
 2619              	.LASF38:
 2620 0756 54494D34 		.ascii	"TIM4_IRQn\000"
 2620      5F495251 
 2620      6E00
 2621              	.LASF158:
 2622 0760 42555454 		.ascii	"BUTTON_CLK\000"
 2622      4F4E5F43 
 2622      4C4B00
 2623              	.LASF107:
 2624 076b 4750494F 		.ascii	"GPIO_Mode_OUT\000"
 2624      5F4D6F64 
 2624      655F4F55 
 2624      5400
 2625              	.LASF127:
 2626 0779 4750494F 		.ascii	"GPIO_PuPd\000"
 2626      5F507550 
 2626      6400
 2627              	.LASF61:
 2628 0783 444D4132 		.ascii	"DMA2_Channel4_IRQn\000"
 2628      5F436861 
 2628      6E6E656C 
 2628      345F4952 
 2628      516E00
 2629              	.LASF165:
 2630 0796 5243435F 		.ascii	"RCC_APB2PeriphClockCmd\000"
 2630      41504232 
 2630      50657269 
 2630      7068436C 
 2630      6F636B43 
 2631              	.LASF77:
 2632 07ad 756E7369 		.ascii	"unsigned int\000"
 2632      676E6564 
 2632      20696E74 
 2632      00
 2633              	.LASF155:
 2634 07ba 4750494F 		.ascii	"GPIO_CLK\000"
 2634      5F434C4B 
 2634      00
 2635              	.LASF157:
 2636 07c3 42555454 		.ascii	"BUTTON_PIN\000"
 2636      4F4E5F50 
 2636      494E00
 2637              	.LASF52:
 2638 07ce 54494D37 		.ascii	"TIM7_IRQn\000"
 2638      5F495251 
 2638      6E00
 2639              	.LASF163:
 2640 07d8 5243435F 		.ascii	"RCC_AHBPeriphClockCmd\000"
 2640      41484250 
 2640      65726970 
 2640      68436C6F 
 2640      636B436D 
 2641              	.LASF0:
 2642 07ee 4E6F6E4D 		.ascii	"NonMaskableInt_IRQn\000"
 2642      61736B61 
 2642      626C6549 
ARM GAS  /tmp/cckM5Epi.s 			page 59


 2642      6E745F49 
 2642      52516E00 
 2643              	.LASF100:
 2644 0802 45585449 		.ascii	"EXTITrigger_TypeDef\000"
 2644      54726967 
 2644      6765725F 
 2644      54797065 
 2644      44656600 
 2645              	.LASF171:
 2646 0816 7372632F 		.ascii	"src/stm32l100c_discovery.c\000"
 2646      73746D33 
 2646      326C3130 
 2646      30635F64 
 2646      6973636F 
 2647              	.LASF124:
 2648 0831 4750494F 		.ascii	"GPIO_Mode\000"
 2648      5F4D6F64 
 2648      6500
 2649              	.LASF105:
 2650 083b 45585449 		.ascii	"EXTI_InitTypeDef\000"
 2650      5F496E69 
 2650      74547970 
 2650      65446566 
 2650      00
 2651              	.LASF29:
 2652 084c 4441435F 		.ascii	"DAC_IRQn\000"
 2652      4952516E 
 2652      00
 2653              	.LASF120:
 2654 0855 4750494F 		.ascii	"GPIO_PuPd_UP\000"
 2654      5F507550 
 2654      645F5550 
 2654      00
 2655              	.LASF28:
 2656 0862 5553425F 		.ascii	"USB_LP_IRQn\000"
 2656      4C505F49 
 2656      52516E00 
 2657              	.LASF97:
 2658 086e 45585449 		.ascii	"EXTI_Trigger_Rising\000"
 2658      5F547269 
 2658      67676572 
 2658      5F526973 
 2658      696E6700 
 2659              	.LASF144:
 2660 0882 53544D5F 		.ascii	"STM_EVAL_LEDOff\000"
 2660      4556414C 
 2660      5F4C4544 
 2660      4F666600 
 2661              	.LASF5:
 2662 0892 44656275 		.ascii	"DebugMonitor_IRQn\000"
 2662      674D6F6E 
 2662      69746F72 
 2662      5F495251 
 2662      6E00
 2663              	.LASF32:
 2664 08a4 4C43445F 		.ascii	"LCD_IRQn\000"
 2664      4952516E 
ARM GAS  /tmp/cckM5Epi.s 			page 60


 2664      00
 2665              	.LASF153:
 2666 08ad 4750494F 		.ascii	"GPIO_PORT\000"
 2666      5F504F52 
 2666      5400
 2667              	.LASF47:
 2668 08b7 55534152 		.ascii	"USART3_IRQn\000"
 2668      54335F49 
 2668      52516E00 
 2669              	.LASF112:
 2670 08c3 4750494F 		.ascii	"GPIO_OType_OD\000"
 2670      5F4F5479 
 2670      70655F4F 
 2670      4400
 2671              	.LASF36:
 2672 08d1 54494D32 		.ascii	"TIM2_IRQn\000"
 2672      5F495251 
 2672      6E00
 2673              	.LASF14:
 2674 08db 45585449 		.ascii	"EXTI0_IRQn\000"
 2674      305F4952 
 2674      516E00
 2675              	.LASF145:
 2676 08e6 53544D5F 		.ascii	"STM_EVAL_LEDToggle\000"
 2676      4556414C 
 2676      5F4C4544 
 2676      546F6767 
 2676      6C6500
 2677              	.LASF89:
 2678 08f9 42535252 		.ascii	"BSRRL\000"
 2678      4C00
 2679              	.LASF139:
 2680 08ff 42555454 		.ascii	"BUTTON_MODE_GPIO\000"
 2680      4F4E5F4D 
 2680      4F44455F 
 2680      4750494F 
 2680      00
 2681              	.LASF110:
 2682 0910 4750494F 		.ascii	"GPIOMode_TypeDef\000"
 2682      4D6F6465 
 2682      5F547970 
 2682      65446566 
 2682      00
 2683              	.LASF90:
 2684 0921 42535252 		.ascii	"BSRRH\000"
 2684      4800
 2685              	.LASF68:
 2686 0927 75696E74 		.ascii	"uint8_t\000"
 2686      385F7400 
 2687              	.LASF123:
 2688 092f 4750494F 		.ascii	"GPIO_Pin\000"
 2688      5F50696E 
 2688      00
 2689              	.LASF121:
 2690 0938 4750494F 		.ascii	"GPIO_PuPd_DOWN\000"
 2690      5F507550 
 2690      645F444F 
ARM GAS  /tmp/cckM5Epi.s 			page 61


 2690      574E00
 2691              	.LASF13:
 2692 0947 5243435F 		.ascii	"RCC_IRQn\000"
 2692      4952516E 
 2692      00
 2693              	.LASF138:
 2694 0950 42757474 		.ascii	"Button_TypeDef\000"
 2694      6F6E5F54 
 2694      79706544 
 2694      656600
 2695              	.LASF15:
 2696 095f 45585449 		.ascii	"EXTI1_IRQn\000"
 2696      315F4952 
 2696      516E00
 2697              	.LASF95:
 2698 096a 45585449 		.ascii	"EXTI_Mode_Event\000"
 2698      5F4D6F64 
 2698      655F4576 
 2698      656E7400 
 2699              	.LASF25:
 2700 097a 444D4131 		.ascii	"DMA1_Channel7_IRQn\000"
 2700      5F436861 
 2700      6E6E656C 
 2700      375F4952 
 2700      516E00
 2701              	.LASF114:
 2702 098d 4750494F 		.ascii	"GPIO_Speed_400KHz\000"
 2702      5F537065 
 2702      65645F34 
 2702      30304B48 
 2702      7A00
 2703              	.LASF117:
 2704 099f 4750494F 		.ascii	"GPIO_Speed_40MHz\000"
 2704      5F537065 
 2704      65645F34 
 2704      304D487A 
 2704      00
 2705              	.LASF159:
 2706 09b0 42555454 		.ascii	"BUTTON_EXTI_LINE\000"
 2706      4F4E5F45 
 2706      5854495F 
 2706      4C494E45 
 2706      00
 2707              	.LASF40:
 2708 09c1 49324331 		.ascii	"I2C1_ER_IRQn\000"
 2708      5F45525F 
 2708      4952516E 
 2708      00
 2709              	.LASF55:
 2710 09ce 53504933 		.ascii	"SPI3_IRQn\000"
 2710      5F495251 
 2710      6E00
 2711              	.LASF10:
 2712 09d8 54414D50 		.ascii	"TAMPER_STAMP_IRQn\000"
 2712      45525F53 
 2712      54414D50 
 2712      5F495251 
ARM GAS  /tmp/cckM5Epi.s 			page 62


 2712      6E00
 2713              	.LASF168:
 2714 09ea 4E564943 		.ascii	"NVIC_Init\000"
 2714      5F496E69 
 2714      7400
 2715              	.LASF37:
 2716 09f4 54494D33 		.ascii	"TIM3_IRQn\000"
 2716      5F495251 
 2716      6E00
 2717              	.LASF4:
 2718 09fe 5356435F 		.ascii	"SVC_IRQn\000"
 2718      4952516E 
 2718      00
 2719              		.ident	"GCC: (GNU Tools for ARM Embedded Processors) 4.8.3 20131129 (release) [ARM/embedded-4_8-br
ARM GAS  /tmp/cckM5Epi.s 			page 63


DEFINED SYMBOLS
                            *ABS*:00000000 stm32l100c_discovery.c
     /tmp/cckM5Epi.s:73     .text:00000000 $t
     /tmp/cckM5Epi.s:78     .text:00000000 STM_EVAL_LEDInit
     /tmp/cckM5Epi.s:142    .text:00000040 $d
     /tmp/cckM5Epi.s:147    .text:00000048 $t
     /tmp/cckM5Epi.s:152    .text:00000048 STM_EVAL_LEDOn
     /tmp/cckM5Epi.s:171    .text:0000005c $d
     /tmp/cckM5Epi.s:176    .text:00000064 $t
     /tmp/cckM5Epi.s:181    .text:00000064 STM_EVAL_LEDOff
     /tmp/cckM5Epi.s:200    .text:00000078 $d
     /tmp/cckM5Epi.s:205    .text:00000080 $t
     /tmp/cckM5Epi.s:210    .text:00000080 STM_EVAL_LEDToggle
     /tmp/cckM5Epi.s:233    .text:00000098 $d
     /tmp/cckM5Epi.s:238    .text:000000a0 $t
     /tmp/cckM5Epi.s:243    .text:000000a0 STM_EVAL_PBInit
     /tmp/cckM5Epi.s:352    .text:00000124 $d
     /tmp/cckM5Epi.s:356    .text:00000128 $t
     /tmp/cckM5Epi.s:361    .text:00000128 STM_EVAL_PBGetState
     /tmp/cckM5Epi.s:386    .text:0000013c $d
     /tmp/cckM5Epi.s:415    .rodata:0000000c BUTTON_IRQn
     /tmp/cckM5Epi.s:420    .rodata:00000010 BUTTON_PIN_SOURCE
     /tmp/cckM5Epi.s:425    .rodata:00000014 BUTTON_PORT_SOURCE
     /tmp/cckM5Epi.s:430    .rodata:00000018 BUTTON_EXTI_LINE
     /tmp/cckM5Epi.s:435    .rodata:0000001c BUTTON_CLK
     /tmp/cckM5Epi.s:439    .rodata:00000020 BUTTON_PIN
     /tmp/cckM5Epi.s:451    .data:00000008 BUTTON_PORT
     /tmp/cckM5Epi.s:405    .rodata:00000000 GPIO_CLK
     /tmp/cckM5Epi.s:410    .rodata:00000008 GPIO_PIN
     /tmp/cckM5Epi.s:446    .data:00000000 GPIO_PORT
     /tmp/cckM5Epi.s:401    .rodata:00000000 $d
     /tmp/cckM5Epi.s:442    .data:00000000 $d
                     .debug_frame:00000010 $d

UNDEFINED SYMBOLS
RCC_AHBPeriphClockCmd
GPIO_Init
RCC_APB2PeriphClockCmd
SYSCFG_EXTILineConfig
EXTI_Init
NVIC_Init
GPIO_ReadInputDataBit
