ARM GAS  /tmp/cckM5Epi.s 			page 1


   1              		.syntax unified
   2              		.cpu cortex-m3
   3              		.fpu softvfp
   4              		.eabi_attribute 20, 1	@ Tag_ABI_FP_denormal
   5              		.eabi_attribute 21, 1	@ Tag_ABI_FP_exceptions
   6              		.eabi_attribute 23, 3	@ Tag_ABI_FP_number_model
   7              		.eabi_attribute 24, 1	@ Tag_ABI_align8_needed
   8              		.eabi_attribute 25, 1	@ Tag_ABI_align8_preserved
   9              		.eabi_attribute 26, 1	@ Tag_ABI_enum_size
  10              		.eabi_attribute 30, 2	@ Tag_ABI_optimization_goals
  11              		.eabi_attribute 34, 1	@ Tag_CPU_unaligned_access
  12              		.eabi_attribute 18, 4	@ Tag_ABI_PCS_wchar_t
  13              		.file	"stm32l100c_discovery.c"
  14              	@ GNU C (GNU Tools for ARM Embedded Processors) version 4.8.3 20131129 (release) [ARM/embedded-4_8-
  15              	@	compiled by GNU C version 4.3.6, GMP version 4.3.2, MPFR version 2.4.2, MPC version 0.8.1
  16              	@ GGC heuristics: --param ggc-min-expand=100 --param ggc-min-heapsize=131072
  17              	@ options passed:  -I . -I ./inc
  18              	@ -I /home/zbanks//STM32L1xx_StdPeriph_Lib_V1.2.0/Libraries/CMSIS/Device/ST/STM32F0xx/Include
  19              	@ -I /home/zbanks//STM32L1xx_StdPeriph_Lib_V1.2.0/Libraries/CMSIS/Include
  20              	@ -I /home/zbanks//STM32L1xx_StdPeriph_Lib_V1.2.0/Libraries/STM32L1xx_StdPeriph_Driver/inc
  21              	@ -I ./inc -imultilib armv7-m
  22              	@ -iprefix /home/zbanks/gcc-arm-none-eabi/bin/../lib/gcc/arm-none-eabi/4.8.3/
  23              	@ -isysroot /home/zbanks/gcc-arm-none-eabi/bin/../arm-none-eabi
  24              	@ -MD src/stm32l100c_discovery.d -MF .dep/stm32l100c_discovery.o.d -MP
  25              	@ -MQ src/stm32l100c_discovery.o -D__USES_INITFINI__ -D STM32L1XX
  26              	@ -D USE_STDPERIPH_DRIVER -D malloc_getpagesize=256 -D RUN_FROM_FLASH=1
  27              	@ src/stm32l100c_discovery.c -mcpu=cortex-m3 -mthumb
  28              	@ -auxbase-strip src/stm32l100c_discovery.o -g -gdwarf-2 -O3 -Wall
  29              	@ -Wstrict-prototypes -std=c99 -fomit-frame-pointer -fverbose-asm
  30              	@ options enabled:  -faggressive-loop-optimizations -fauto-inc-dec
  31              	@ -fbranch-count-reg -fcaller-saves -fcombine-stack-adjustments -fcommon
  32              	@ -fcompare-elim -fcprop-registers -fcrossjumping -fcse-follow-jumps
  33              	@ -fdefer-pop -fdelete-null-pointer-checks -fdevirtualize -fdwarf2-cfi-asm
  34              	@ -fearly-inlining -feliminate-unused-debug-types -fexpensive-optimizations
  35              	@ -fforward-propagate -ffunction-cse -fgcse -fgcse-after-reload -fgcse-lm
  36              	@ -fgnu-runtime -fguess-branch-probability -fhoist-adjacent-loads -fident
  37              	@ -fif-conversion -fif-conversion2 -findirect-inlining -finline
  38              	@ -finline-atomics -finline-functions -finline-functions-called-once
  39              	@ -finline-small-functions -fipa-cp -fipa-cp-clone -fipa-profile
  40              	@ -fipa-pure-const -fipa-reference -fipa-sra -fira-hoist-pressure
  41              	@ -fira-share-save-slots -fira-share-spill-slots -fivopts
  42              	@ -fkeep-static-consts -fleading-underscore -fmath-errno -fmerge-constants
  43              	@ -fmerge-debug-strings -fmove-loop-invariants -fomit-frame-pointer
  44              	@ -foptimize-register-move -foptimize-sibling-calls -foptimize-strlen
  45              	@ -fpartial-inlining -fpeephole -fpeephole2 -fpredictive-commoning
  46              	@ -fprefetch-loop-arrays -freg-struct-return -fregmove -freorder-blocks
  47              	@ -freorder-functions -frerun-cse-after-loop
  48              	@ -fsched-critical-path-heuristic -fsched-dep-count-heuristic
  49              	@ -fsched-group-heuristic -fsched-interblock -fsched-last-insn-heuristic
  50              	@ -fsched-pressure -fsched-rank-heuristic -fsched-spec
  51              	@ -fsched-spec-insn-heuristic -fsched-stalled-insns-dep -fschedule-insns
  52              	@ -fschedule-insns2 -fsection-anchors -fshow-column -fshrink-wrap
  53              	@ -fsigned-zeros -fsplit-ivs-in-unroller -fsplit-wide-types
  54              	@ -fstrict-aliasing -fstrict-overflow -fstrict-volatile-bitfields
  55              	@ -fsync-libcalls -fthread-jumps -ftoplevel-reorder -ftrapping-math
  56              	@ -ftree-bit-ccp -ftree-builtin-call-dce -ftree-ccp -ftree-ch
  57              	@ -ftree-coalesce-vars -ftree-copy-prop -ftree-copyrename -ftree-cselim
ARM GAS  /tmp/cckM5Epi.s 			page 2


  58              	@ -ftree-dce -ftree-dominator-opts -ftree-dse -ftree-forwprop -ftree-fre
  59              	@ -ftree-loop-distribute-patterns -ftree-loop-if-convert -ftree-loop-im
  60              	@ -ftree-loop-ivcanon -ftree-loop-optimize -ftree-parallelize-loops=
  61              	@ -ftree-partial-pre -ftree-phiprop -ftree-pre -ftree-pta -ftree-reassoc
  62              	@ -ftree-scev-cprop -ftree-sink -ftree-slp-vectorize -ftree-slsr -ftree-sra
  63              	@ -ftree-switch-conversion -ftree-tail-merge -ftree-ter
  64              	@ -ftree-vect-loop-version -ftree-vectorize -ftree-vrp -funit-at-a-time
  65              	@ -funswitch-loops -fvar-tracking -fvar-tracking-assignments
  66              	@ -fvect-cost-model -fverbose-asm -fzero-initialized-in-bss
  67              	@ -mfix-cortex-m3-ldrd -mlittle-endian -mpic-data-is-text-relative
  68              	@ -msched-prolog -mthumb -munaligned-access -mvectorize-with-neon-quad
  69              	
  70              		.text
  71              	.Ltext0:
  72              		.cfi_sections	.debug_frame
  73              		.align	2
  74              		.global	STM_EVAL_LEDInit
  75              		.thumb
  76              		.thumb_func
  77              		.type	STM_EVAL_LEDInit, %function
  78              	STM_EVAL_LEDInit:
  79              	.LFB56:
  80              		.file 1 "src/stm32l100c_discovery.c"
   1:src/stm32l100c_discovery.c **** /**
   2:src/stm32l100c_discovery.c ****   ******************************************************************************
   3:src/stm32l100c_discovery.c ****   * @file    stm32l100c_discovery.c
   4:src/stm32l100c_discovery.c ****   * @author  MCD Application Team
   5:src/stm32l100c_discovery.c ****   * @version V1.0.0
   6:src/stm32l100c_discovery.c ****   * @date    29-July-2013
   7:src/stm32l100c_discovery.c ****   * @brief   This file provides set of firmware functions to manage Leds and
   8:src/stm32l100c_discovery.c ****   *          push-button available on STM32L100C-Discovery Kit from STMicroelectronics.
   9:src/stm32l100c_discovery.c ****   ******************************************************************************
  10:src/stm32l100c_discovery.c ****   * @attention
  11:src/stm32l100c_discovery.c ****   *
  12:src/stm32l100c_discovery.c ****   * <h2><center>&copy; COPYRIGHT 2013 STMicroelectronics</center></h2>
  13:src/stm32l100c_discovery.c ****   *
  14:src/stm32l100c_discovery.c ****   * Licensed under MCD-ST Liberty SW License Agreement V2, (the "License");
  15:src/stm32l100c_discovery.c ****   * You may not use this file except in compliance with the License.
  16:src/stm32l100c_discovery.c ****   * You may obtain a copy of the License at:
  17:src/stm32l100c_discovery.c ****   *
  18:src/stm32l100c_discovery.c ****   *        http://www.st.com/software_license_agreement_liberty_v2
  19:src/stm32l100c_discovery.c ****   *
  20:src/stm32l100c_discovery.c ****   * Unless required by applicable law or agreed to in writing, software 
  21:src/stm32l100c_discovery.c ****   * distributed under the License is distributed on an "AS IS" BASIS, 
  22:src/stm32l100c_discovery.c ****   * WITHOUT WARRANTIES OR CONDITIONS OF ANY KIND, either express or implied.
  23:src/stm32l100c_discovery.c ****   * See the License for the specific language governing permissions and
  24:src/stm32l100c_discovery.c ****   * limitations under the License.
  25:src/stm32l100c_discovery.c ****   *
  26:src/stm32l100c_discovery.c ****   ******************************************************************************
  27:src/stm32l100c_discovery.c ****   */
  28:src/stm32l100c_discovery.c ****   
  29:src/stm32l100c_discovery.c **** /* Includes ------------------------------------------------------------------*/
  30:src/stm32l100c_discovery.c **** #include "stm32l100c_discovery.h"
  31:src/stm32l100c_discovery.c **** 
  32:src/stm32l100c_discovery.c **** /** @addtogroup Utilities
  33:src/stm32l100c_discovery.c ****   * @{
  34:src/stm32l100c_discovery.c ****   */ 
ARM GAS  /tmp/cckM5Epi.s 			page 3


  35:src/stm32l100c_discovery.c **** 
  36:src/stm32l100c_discovery.c **** /** @addtogroup STM32L100C_DISCOVERY
  37:src/stm32l100c_discovery.c ****   * @{
  38:src/stm32l100c_discovery.c ****   */ 
  39:src/stm32l100c_discovery.c ****     
  40:src/stm32l100c_discovery.c **** /** @defgroup STM32L100C_DISCOVERY_LOW_LEVEL 
  41:src/stm32l100c_discovery.c ****   * @brief This file provides firmware functions to manage Leds and push-buttons, 
  42:src/stm32l100c_discovery.c ****   *        available on STM32L100C_DISCOVERY evaluation board from STMicroelectronics.
  43:src/stm32l100c_discovery.c ****   * @{
  44:src/stm32l100c_discovery.c ****   */ 
  45:src/stm32l100c_discovery.c **** 
  46:src/stm32l100c_discovery.c **** /** @defgroup STM32L100C_DISCOVERY_LOW_LEVEL_Private_TypesDefinitions
  47:src/stm32l100c_discovery.c ****   * @{
  48:src/stm32l100c_discovery.c ****   */ 
  49:src/stm32l100c_discovery.c **** /**
  50:src/stm32l100c_discovery.c ****   * @}
  51:src/stm32l100c_discovery.c ****   */ 
  52:src/stm32l100c_discovery.c **** 
  53:src/stm32l100c_discovery.c **** 
  54:src/stm32l100c_discovery.c **** /** @defgroup STM32L100C_DISCOVERY_LOW_LEVEL_Private_Defines
  55:src/stm32l100c_discovery.c ****   * @{
  56:src/stm32l100c_discovery.c ****   */ 
  57:src/stm32l100c_discovery.c **** /**
  58:src/stm32l100c_discovery.c ****   * @}
  59:src/stm32l100c_discovery.c ****   */ 
  60:src/stm32l100c_discovery.c **** 
  61:src/stm32l100c_discovery.c **** 
  62:src/stm32l100c_discovery.c **** /** @defgroup STM32L100C_DISCOVERY_LOW_LEVEL_Private_Macros
  63:src/stm32l100c_discovery.c ****   * @{
  64:src/stm32l100c_discovery.c ****   */ 
  65:src/stm32l100c_discovery.c **** /**
  66:src/stm32l100c_discovery.c ****   * @}
  67:src/stm32l100c_discovery.c ****   */ 
  68:src/stm32l100c_discovery.c **** 
  69:src/stm32l100c_discovery.c **** 
  70:src/stm32l100c_discovery.c **** /** @defgroup STM32L100C_DISCOVERY_LOW_LEVEL_Private_Variables
  71:src/stm32l100c_discovery.c ****   * @{
  72:src/stm32l100c_discovery.c ****   */ 
  73:src/stm32l100c_discovery.c **** GPIO_TypeDef* GPIO_PORT[LEDn] = {LED3_GPIO_PORT, LED4_GPIO_PORT};
  74:src/stm32l100c_discovery.c **** const uint16_t GPIO_PIN[LEDn] = {LED3_PIN, LED4_PIN};
  75:src/stm32l100c_discovery.c **** const uint32_t GPIO_CLK[LEDn] = {LED3_GPIO_CLK, LED4_GPIO_CLK};
  76:src/stm32l100c_discovery.c **** 
  77:src/stm32l100c_discovery.c **** GPIO_TypeDef* BUTTON_PORT[BUTTONn] = {USER_BUTTON_GPIO_PORT}; 
  78:src/stm32l100c_discovery.c **** 
  79:src/stm32l100c_discovery.c **** const uint16_t BUTTON_PIN[BUTTONn] = {USER_BUTTON_PIN}; 
  80:src/stm32l100c_discovery.c **** 
  81:src/stm32l100c_discovery.c **** const uint32_t BUTTON_CLK[BUTTONn] = {USER_BUTTON_GPIO_CLK};
  82:src/stm32l100c_discovery.c **** 
  83:src/stm32l100c_discovery.c **** const uint16_t BUTTON_EXTI_LINE[BUTTONn] = {USER_BUTTON_EXTI_LINE};
  84:src/stm32l100c_discovery.c **** 
  85:src/stm32l100c_discovery.c **** const uint16_t BUTTON_PORT_SOURCE[BUTTONn] = {USER_BUTTON_EXTI_PORT_SOURCE};
  86:src/stm32l100c_discovery.c **** 								 
  87:src/stm32l100c_discovery.c **** const uint16_t BUTTON_PIN_SOURCE[BUTTONn] = {USER_BUTTON_EXTI_PIN_SOURCE}; 
  88:src/stm32l100c_discovery.c **** 
  89:src/stm32l100c_discovery.c **** const uint16_t BUTTON_IRQn[BUTTONn] = {USER_BUTTON_EXTI_IRQn};
  90:src/stm32l100c_discovery.c **** 
  91:src/stm32l100c_discovery.c **** /**
ARM GAS  /tmp/cckM5Epi.s 			page 4


  92:src/stm32l100c_discovery.c ****   * @}
  93:src/stm32l100c_discovery.c ****   */ 
  94:src/stm32l100c_discovery.c **** 
  95:src/stm32l100c_discovery.c **** 
  96:src/stm32l100c_discovery.c **** /** @defgroup STM32L100C_DISCOVERY_LOW_LEVEL_Private_FunctionPrototypes
  97:src/stm32l100c_discovery.c ****   * @{
  98:src/stm32l100c_discovery.c ****   */ 
  99:src/stm32l100c_discovery.c **** 
 100:src/stm32l100c_discovery.c **** /**
 101:src/stm32l100c_discovery.c ****   * @}
 102:src/stm32l100c_discovery.c ****   */ 
 103:src/stm32l100c_discovery.c **** 
 104:src/stm32l100c_discovery.c **** /** @defgroup STM32L100C_DISCOVERY_LOW_LEVEL_Private_Functions
 105:src/stm32l100c_discovery.c ****   * @{
 106:src/stm32l100c_discovery.c ****   */ 
 107:src/stm32l100c_discovery.c **** 
 108:src/stm32l100c_discovery.c **** /**
 109:src/stm32l100c_discovery.c ****   * @brief  Configures LED GPIO.
 110:src/stm32l100c_discovery.c ****   * @param  Led: Specifies the Led to be configured. 
 111:src/stm32l100c_discovery.c ****   *   This parameter can be one of following parameters:
 112:src/stm32l100c_discovery.c ****   *     @arg LED3
 113:src/stm32l100c_discovery.c ****   *     @arg LED4
 114:src/stm32l100c_discovery.c ****   * @retval None
 115:src/stm32l100c_discovery.c ****   */
 116:src/stm32l100c_discovery.c **** void STM_EVAL_LEDInit(Led_TypeDef Led)
 117:src/stm32l100c_discovery.c **** {
  81              		.loc 1 117 0
  82              		.cfi_startproc
  83              		@ args = 0, pretend = 0, frame = 8
  84              		@ frame_needed = 0, uses_anonymous_args = 0
  85              	.LVL0:
  86 0000 30B5     		push	{r4, r5, lr}	@
  87              	.LCFI0:
  88              		.cfi_def_cfa_offset 12
  89              		.cfi_offset 4, -12
  90              		.cfi_offset 5, -8
  91              		.cfi_offset 14, -4
 118:src/stm32l100c_discovery.c ****   GPIO_InitTypeDef  GPIO_InitStructure;
 119:src/stm32l100c_discovery.c ****   
 120:src/stm32l100c_discovery.c ****   /* Enable the GPIO_LED Clock */
 121:src/stm32l100c_discovery.c ****   RCC_AHBPeriphClockCmd(GPIO_CLK[Led], ENABLE);
  92              		.loc 1 121 0
  93 0002 0F4D     		ldr	r5, .L2	@ tmp116,
 117:src/stm32l100c_discovery.c **** {
  94              		.loc 1 117 0
  95 0004 83B0     		sub	sp, sp, #12	@,,
  96              	.LCFI1:
  97              		.cfi_def_cfa_offset 24
 117:src/stm32l100c_discovery.c **** {
  98              		.loc 1 117 0
  99 0006 0446     		mov	r4, r0	@ Led, Led
 100              		.loc 1 121 0
 101 0008 0121     		movs	r1, #1	@,
 102 000a 55F82000 		ldr	r0, [r5, r0, lsl #2]	@, GPIO_CLK
 103              	.LVL1:
 104 000e FFF7FEFF 		bl	RCC_AHBPeriphClockCmd	@
 105              	.LVL2:
ARM GAS  /tmp/cckM5Epi.s 			page 5


 122:src/stm32l100c_discovery.c **** 
 123:src/stm32l100c_discovery.c ****   /* Configure the GPIO_LED pin */
 124:src/stm32l100c_discovery.c ****   GPIO_InitStructure.GPIO_Pin = GPIO_PIN[Led];
 106              		.loc 1 124 0
 107 0012 05EB4405 		add	r5, r5, r4, lsl #1	@, tmp119, tmp116, Led,
 125:src/stm32l100c_discovery.c ****   GPIO_InitStructure.GPIO_Mode = GPIO_Mode_OUT;
 126:src/stm32l100c_discovery.c ****   GPIO_InitStructure.GPIO_OType = GPIO_OType_PP;
 127:src/stm32l100c_discovery.c ****   GPIO_InitStructure.GPIO_PuPd = GPIO_PuPd_NOPULL;
 128:src/stm32l100c_discovery.c ****   GPIO_InitStructure.GPIO_Speed = GPIO_Speed_40MHz;
 129:src/stm32l100c_discovery.c ****   GPIO_Init(GPIO_PORT[Led], &GPIO_InitStructure);
 108              		.loc 1 129 0
 109 0016 0B4B     		ldr	r3, .L2+4	@ tmp130,
 124:src/stm32l100c_discovery.c ****   GPIO_InitStructure.GPIO_Pin = GPIO_PIN[Led];
 110              		.loc 1 124 0
 111 0018 2D89     		ldrh	r5, [r5, #8]	@ tmp121, GPIO_PIN
 112              		.loc 1 129 0
 113 001a 53F82400 		ldr	r0, [r3, r4, lsl #2]	@, GPIO_PORT
 128:src/stm32l100c_discovery.c ****   GPIO_InitStructure.GPIO_Speed = GPIO_Speed_40MHz;
 114              		.loc 1 128 0
 115 001e 0322     		movs	r2, #3	@ tmp128,
 126:src/stm32l100c_discovery.c ****   GPIO_InitStructure.GPIO_OType = GPIO_OType_PP;
 116              		.loc 1 126 0
 117 0020 0023     		movs	r3, #0	@ tmp124,
 125:src/stm32l100c_discovery.c ****   GPIO_InitStructure.GPIO_Mode = GPIO_Mode_OUT;
 118              		.loc 1 125 0
 119 0022 0124     		movs	r4, #1	@ tmp122,
 120              		.loc 1 129 0
 121 0024 6946     		mov	r1, sp	@,
 124:src/stm32l100c_discovery.c ****   GPIO_InitStructure.GPIO_Pin = GPIO_PIN[Led];
 122              		.loc 1 124 0
 123 0026 0095     		str	r5, [sp]	@ tmp121, GPIO_InitStructure.GPIO_Pin
 125:src/stm32l100c_discovery.c ****   GPIO_InitStructure.GPIO_Mode = GPIO_Mode_OUT;
 124              		.loc 1 125 0
 125 0028 8DF80440 		strb	r4, [sp, #4]	@ tmp122, GPIO_InitStructure.GPIO_Mode
 126:src/stm32l100c_discovery.c ****   GPIO_InitStructure.GPIO_OType = GPIO_OType_PP;
 126              		.loc 1 126 0
 127 002c 8DF80630 		strb	r3, [sp, #6]	@ tmp124, GPIO_InitStructure.GPIO_OType
 127:src/stm32l100c_discovery.c ****   GPIO_InitStructure.GPIO_PuPd = GPIO_PuPd_NOPULL;
 128              		.loc 1 127 0
 129 0030 8DF80730 		strb	r3, [sp, #7]	@ tmp124, GPIO_InitStructure.GPIO_PuPd
 128:src/stm32l100c_discovery.c ****   GPIO_InitStructure.GPIO_Speed = GPIO_Speed_40MHz;
 130              		.loc 1 128 0
 131 0034 8DF80520 		strb	r2, [sp, #5]	@ tmp128, GPIO_InitStructure.GPIO_Speed
 132              		.loc 1 129 0
 133 0038 FFF7FEFF 		bl	GPIO_Init	@
 134              	.LVL3:
 130:src/stm32l100c_discovery.c **** }
 135              		.loc 1 130 0
 136 003c 03B0     		add	sp, sp, #12	@,,
 137              		@ sp needed	@
 138 003e 30BD     		pop	{r4, r5, pc}	@
 139              	.L3:
 140              		.align	2
 141              	.L2:
 142 0040 00000000 		.word	.LANCHOR0
 143 0044 00000000 		.word	.LANCHOR1
 144              		.cfi_endproc
ARM GAS  /tmp/cckM5Epi.s 			page 6


 145              	.LFE56:
 146              		.size	STM_EVAL_LEDInit, .-STM_EVAL_LEDInit
 147              		.align	2
 148              		.global	STM_EVAL_LEDOn
 149              		.thumb
 150              		.thumb_func
 151              		.type	STM_EVAL_LEDOn, %function
 152              	STM_EVAL_LEDOn:
 153              	.LFB57:
 131:src/stm32l100c_discovery.c **** 
 132:src/stm32l100c_discovery.c **** /**
 133:src/stm32l100c_discovery.c ****   * @brief  Turns selected LED On.
 134:src/stm32l100c_discovery.c ****   * @param  Led: Specifies the Led to be set on. 
 135:src/stm32l100c_discovery.c ****   *   This parameter can be one of following parameters:
 136:src/stm32l100c_discovery.c ****   *     @arg LED3
 137:src/stm32l100c_discovery.c ****   *     @arg LED4  
 138:src/stm32l100c_discovery.c ****   * @retval None
 139:src/stm32l100c_discovery.c ****   */
 140:src/stm32l100c_discovery.c **** void STM_EVAL_LEDOn(Led_TypeDef Led)
 141:src/stm32l100c_discovery.c **** {
 154              		.loc 1 141 0
 155              		.cfi_startproc
 156              		@ args = 0, pretend = 0, frame = 0
 157              		@ frame_needed = 0, uses_anonymous_args = 0
 158              		@ link register save eliminated.
 159              	.LVL4:
 142:src/stm32l100c_discovery.c ****   GPIO_PORT[Led]->BSRRL = GPIO_PIN[Led];
 160              		.loc 1 142 0
 161 0048 044B     		ldr	r3, .L5	@ tmp115,
 162 004a 0549     		ldr	r1, .L5+4	@ tmp114,
 163 004c 03EB4003 		add	r3, r3, r0, lsl #1	@, tmp116, tmp115, Led,
 164 0050 1A89     		ldrh	r2, [r3, #8]	@ D.6636, GPIO_PIN
 165 0052 51F82030 		ldr	r3, [r1, r0, lsl #2]	@ D.6635, GPIO_PORT
 166 0056 1A83     		strh	r2, [r3, #24]	@ movhi	@ D.6636, _4->BSRRL
 167 0058 7047     		bx	lr	@
 168              	.L6:
 169 005a 00BF     		.align	2
 170              	.L5:
 171 005c 00000000 		.word	.LANCHOR0
 172 0060 00000000 		.word	.LANCHOR1
 173              		.cfi_endproc
 174              	.LFE57:
 175              		.size	STM_EVAL_LEDOn, .-STM_EVAL_LEDOn
 176              		.align	2
 177              		.global	STM_EVAL_LEDOff
 178              		.thumb
 179              		.thumb_func
 180              		.type	STM_EVAL_LEDOff, %function
 181              	STM_EVAL_LEDOff:
 182              	.LFB58:
 143:src/stm32l100c_discovery.c **** }
 144:src/stm32l100c_discovery.c **** 
 145:src/stm32l100c_discovery.c **** /**
 146:src/stm32l100c_discovery.c ****   * @brief  Turns selected LED Off.
 147:src/stm32l100c_discovery.c ****   * @param  Led: Specifies the Led to be set off. 
 148:src/stm32l100c_discovery.c ****   *   This parameter can be one of following parameters:
 149:src/stm32l100c_discovery.c ****   *     @arg LED3
ARM GAS  /tmp/cckM5Epi.s 			page 7


 150:src/stm32l100c_discovery.c ****   *     @arg LED4 
 151:src/stm32l100c_discovery.c ****   * @retval None
 152:src/stm32l100c_discovery.c ****   */
 153:src/stm32l100c_discovery.c **** void STM_EVAL_LEDOff(Led_TypeDef Led)
 154:src/stm32l100c_discovery.c **** {
 183              		.loc 1 154 0
 184              		.cfi_startproc
 185              		@ args = 0, pretend = 0, frame = 0
 186              		@ frame_needed = 0, uses_anonymous_args = 0
 187              		@ link register save eliminated.
 188              	.LVL5:
 155:src/stm32l100c_discovery.c ****   GPIO_PORT[Led]->BSRRH = GPIO_PIN[Led];
 189              		.loc 1 155 0
 190 0064 044B     		ldr	r3, .L8	@ tmp115,
 191 0066 0549     		ldr	r1, .L8+4	@ tmp114,
 192 0068 03EB4003 		add	r3, r3, r0, lsl #1	@, tmp116, tmp115, Led,
 193 006c 1A89     		ldrh	r2, [r3, #8]	@ D.6641, GPIO_PIN
 194 006e 51F82030 		ldr	r3, [r1, r0, lsl #2]	@ D.6640, GPIO_PORT
 195 0072 5A83     		strh	r2, [r3, #26]	@ movhi	@ D.6641, _4->BSRRH
 196 0074 7047     		bx	lr	@
 197              	.L9:
 198 0076 00BF     		.align	2
 199              	.L8:
 200 0078 00000000 		.word	.LANCHOR0
 201 007c 00000000 		.word	.LANCHOR1
 202              		.cfi_endproc
 203              	.LFE58:
 204              		.size	STM_EVAL_LEDOff, .-STM_EVAL_LEDOff
 205              		.align	2
 206              		.global	STM_EVAL_LEDToggle
 207              		.thumb
 208              		.thumb_func
 209              		.type	STM_EVAL_LEDToggle, %function
 210              	STM_EVAL_LEDToggle:
 211              	.LFB59:
 156:src/stm32l100c_discovery.c **** }
 157:src/stm32l100c_discovery.c **** 
 158:src/stm32l100c_discovery.c **** /**
 159:src/stm32l100c_discovery.c ****   * @brief  Toggles the selected LED.
 160:src/stm32l100c_discovery.c ****   * @param  Led: Specifies the Led to be toggled. 
 161:src/stm32l100c_discovery.c ****   *   This parameter can be one of following parameters:
 162:src/stm32l100c_discovery.c ****   *     @arg LED3
 163:src/stm32l100c_discovery.c ****   *     @arg LED4  
 164:src/stm32l100c_discovery.c ****   * @retval None
 165:src/stm32l100c_discovery.c ****   */
 166:src/stm32l100c_discovery.c **** void STM_EVAL_LEDToggle(Led_TypeDef Led)
 167:src/stm32l100c_discovery.c **** {
 212              		.loc 1 167 0
 213              		.cfi_startproc
 214              		@ args = 0, pretend = 0, frame = 0
 215              		@ frame_needed = 0, uses_anonymous_args = 0
 216              		@ link register save eliminated.
 217              	.LVL6:
 168:src/stm32l100c_discovery.c ****   GPIO_PORT[Led]->ODR ^= GPIO_PIN[Led];
 218              		.loc 1 168 0
 219 0080 054B     		ldr	r3, .L11	@ tmp116,
 220 0082 064A     		ldr	r2, .L11+4	@ tmp119,
ARM GAS  /tmp/cckM5Epi.s 			page 8


 221 0084 53F82030 		ldr	r3, [r3, r0, lsl #2]	@ D.6645, GPIO_PORT
 222 0088 02EB4000 		add	r0, r2, r0, lsl #1	@, tmp120, tmp119, Led,
 223              	.LVL7:
 224 008c 0189     		ldrh	r1, [r0, #8]	@, GPIO_PIN
 225 008e 9A8A     		ldrh	r2, [r3, #20]	@, _4->ODR
 226 0090 4A40     		eors	r2, r2, r1	@, tmp123, _4->ODR, tmp122
 227 0092 92B2     		uxth	r2, r2	@ D.6646, tmp123
 228 0094 9A82     		strh	r2, [r3, #20]	@ movhi	@ D.6646, _4->ODR
 229 0096 7047     		bx	lr	@
 230              	.L12:
 231              		.align	2
 232              	.L11:
 233 0098 00000000 		.word	.LANCHOR1
 234 009c 00000000 		.word	.LANCHOR0
 235              		.cfi_endproc
 236              	.LFE59:
 237              		.size	STM_EVAL_LEDToggle, .-STM_EVAL_LEDToggle
 238              		.align	2
 239              		.global	STM_EVAL_PBInit
 240              		.thumb
 241              		.thumb_func
 242              		.type	STM_EVAL_PBInit, %function
 243              	STM_EVAL_PBInit:
 244              	.LFB60:
 169:src/stm32l100c_discovery.c **** }
 170:src/stm32l100c_discovery.c **** 
 171:src/stm32l100c_discovery.c **** /**
 172:src/stm32l100c_discovery.c ****   * @brief  Configures Button GPIO and EXTI Line.
 173:src/stm32l100c_discovery.c ****   * @param  Button: Specifies the Button to be configured.
 174:src/stm32l100c_discovery.c ****   *   This parameter can be:
 175:src/stm32l100c_discovery.c ****   *     @arg BUTTON_USER: User Push Button      
 176:src/stm32l100c_discovery.c ****   * @param  Button_Mode: Specifies Button mode.
 177:src/stm32l100c_discovery.c ****   *   This parameter can be one of following parameters:   
 178:src/stm32l100c_discovery.c ****   *     @arg BUTTON_MODE_GPIO: Button will be used as simple IO 
 179:src/stm32l100c_discovery.c ****   *     @arg BUTTON_MODE_EXTI: Button will be connected to EXTI line with interrupt
 180:src/stm32l100c_discovery.c ****   *                            generation capability
 181:src/stm32l100c_discovery.c ****   * @retval None
 182:src/stm32l100c_discovery.c ****   */
 183:src/stm32l100c_discovery.c **** void STM_EVAL_PBInit(Button_TypeDef Button, ButtonMode_TypeDef Button_Mode)
 184:src/stm32l100c_discovery.c **** {
 245              		.loc 1 184 0
 246              		.cfi_startproc
 247              		@ args = 0, pretend = 0, frame = 24
 248              		@ frame_needed = 0, uses_anonymous_args = 0
 249              	.LVL8:
 250 00a0 70B5     		push	{r4, r5, r6, lr}	@
 251              	.LCFI2:
 252              		.cfi_def_cfa_offset 16
 253              		.cfi_offset 4, -16
 254              		.cfi_offset 5, -12
 255              		.cfi_offset 6, -8
 256              		.cfi_offset 14, -4
 257 00a2 0646     		mov	r6, r0	@ Button, Button
 185:src/stm32l100c_discovery.c ****   GPIO_InitTypeDef GPIO_InitStructure;
 186:src/stm32l100c_discovery.c ****   EXTI_InitTypeDef EXTI_InitStructure;
 187:src/stm32l100c_discovery.c ****   NVIC_InitTypeDef NVIC_InitStructure;
 188:src/stm32l100c_discovery.c **** 
ARM GAS  /tmp/cckM5Epi.s 			page 9


 189:src/stm32l100c_discovery.c ****   /* Enable the BUTTON Clock */
 190:src/stm32l100c_discovery.c ****   RCC_AHBPeriphClockCmd(BUTTON_CLK[Button], ENABLE);
 258              		.loc 1 190 0
 259 00a4 0120     		movs	r0, #1	@,
 260              	.LVL9:
 184:src/stm32l100c_discovery.c **** {
 261              		.loc 1 184 0
 262 00a6 86B0     		sub	sp, sp, #24	@,,
 263              	.LCFI3:
 264              		.cfi_def_cfa_offset 40
 184:src/stm32l100c_discovery.c **** {
 265              		.loc 1 184 0
 266 00a8 0D46     		mov	r5, r1	@ Button_Mode, Button_Mode
 267              		.loc 1 190 0
 268 00aa 0146     		mov	r1, r0	@,
 269              	.LVL10:
 270 00ac FFF7FEFF 		bl	RCC_AHBPeriphClockCmd	@
 271              	.LVL11:
 191:src/stm32l100c_discovery.c ****   RCC_APB2PeriphClockCmd(RCC_APB2Periph_SYSCFG, ENABLE);
 272              		.loc 1 191 0
 273 00b0 0120     		movs	r0, #1	@,
 274 00b2 0146     		mov	r1, r0	@,
 275 00b4 FFF7FEFF 		bl	RCC_APB2PeriphClockCmd	@
 276              	.LVL12:
 192:src/stm32l100c_discovery.c **** 
 193:src/stm32l100c_discovery.c ****   /* Configure Button pin as input */
 194:src/stm32l100c_discovery.c ****   GPIO_InitStructure.GPIO_Mode = GPIO_Mode_IN;
 195:src/stm32l100c_discovery.c ****   GPIO_InitStructure.GPIO_PuPd = GPIO_PuPd_NOPULL;
 196:src/stm32l100c_discovery.c ****   GPIO_InitStructure.GPIO_Pin = BUTTON_PIN[Button];
 197:src/stm32l100c_discovery.c ****   GPIO_Init(BUTTON_PORT[Button], &GPIO_InitStructure);
 277              		.loc 1 197 0
 278 00b8 1A4A     		ldr	r2, .L19	@ tmp120,
 196:src/stm32l100c_discovery.c ****   GPIO_InitStructure.GPIO_Pin = BUTTON_PIN[Button];
 279              		.loc 1 196 0
 280 00ba 06AB     		add	r3, sp, #24	@ tmp124,,
 281 00bc 0121     		movs	r1, #1	@ tmp119,
 282              		.loc 1 197 0
 283 00be 02EB8602 		add	r2, r2, r6, lsl #2	@, tmp121, tmp120, Button,
 196:src/stm32l100c_discovery.c ****   GPIO_InitStructure.GPIO_Pin = BUTTON_PIN[Button];
 284              		.loc 1 196 0
 285 00c2 43F8081D 		str	r1, [r3, #-8]!	@ tmp119, GPIO_InitStructure.GPIO_Pin
 194:src/stm32l100c_discovery.c ****   GPIO_InitStructure.GPIO_Mode = GPIO_Mode_IN;
 286              		.loc 1 194 0
 287 00c6 0024     		movs	r4, #0	@ tmp115,
 288              		.loc 1 197 0
 289 00c8 9068     		ldr	r0, [r2, #8]	@, BUTTON_PORT
 290 00ca 1946     		mov	r1, r3	@, tmp124
 194:src/stm32l100c_discovery.c ****   GPIO_InitStructure.GPIO_Mode = GPIO_Mode_IN;
 291              		.loc 1 194 0
 292 00cc 8DF81440 		strb	r4, [sp, #20]	@ tmp115, GPIO_InitStructure.GPIO_Mode
 195:src/stm32l100c_discovery.c ****   GPIO_InitStructure.GPIO_PuPd = GPIO_PuPd_NOPULL;
 293              		.loc 1 195 0
 294 00d0 8DF81740 		strb	r4, [sp, #23]	@ tmp115, GPIO_InitStructure.GPIO_PuPd
 295              		.loc 1 197 0
 296 00d4 FFF7FEFF 		bl	GPIO_Init	@
 297              	.LVL13:
 198:src/stm32l100c_discovery.c **** 
ARM GAS  /tmp/cckM5Epi.s 			page 10


 199:src/stm32l100c_discovery.c ****   if (Button_Mode == BUTTON_MODE_EXTI)
 298              		.loc 1 199 0
 299 00d8 012D     		cmp	r5, #1	@ Button_Mode,
 300 00da 01D0     		beq	.L18	@,
 200:src/stm32l100c_discovery.c ****   {
 201:src/stm32l100c_discovery.c ****     /* Connect Button EXTI Line to Button GPIO Pin */
 202:src/stm32l100c_discovery.c ****     SYSCFG_EXTILineConfig(BUTTON_PORT_SOURCE[Button], BUTTON_PIN_SOURCE[Button]);
 203:src/stm32l100c_discovery.c **** 
 204:src/stm32l100c_discovery.c ****     /* Configure Button EXTI line */
 205:src/stm32l100c_discovery.c ****     EXTI_InitStructure.EXTI_Line = BUTTON_EXTI_LINE[Button];
 206:src/stm32l100c_discovery.c ****     EXTI_InitStructure.EXTI_Mode = EXTI_Mode_Interrupt;
 207:src/stm32l100c_discovery.c ****     if (Button != BUTTON_USER)
 208:src/stm32l100c_discovery.c ****     {
 209:src/stm32l100c_discovery.c ****       EXTI_InitStructure.EXTI_Trigger = EXTI_Trigger_Rising;
 210:src/stm32l100c_discovery.c ****     }
 211:src/stm32l100c_discovery.c ****     else
 212:src/stm32l100c_discovery.c ****     {
 213:src/stm32l100c_discovery.c ****       EXTI_InitStructure.EXTI_Trigger = EXTI_Trigger_Falling;    
 214:src/stm32l100c_discovery.c ****     }
 215:src/stm32l100c_discovery.c ****     EXTI_InitStructure.EXTI_LineCmd = ENABLE;
 216:src/stm32l100c_discovery.c ****     EXTI_Init(&EXTI_InitStructure);
 217:src/stm32l100c_discovery.c **** 
 218:src/stm32l100c_discovery.c ****     /* Enable and set Button EXTI Interrupt to the lowest priority */
 219:src/stm32l100c_discovery.c ****     NVIC_InitStructure.NVIC_IRQChannel = BUTTON_IRQn[Button];
 220:src/stm32l100c_discovery.c ****     NVIC_InitStructure.NVIC_IRQChannelPreemptionPriority = 0x0F;
 221:src/stm32l100c_discovery.c ****     NVIC_InitStructure.NVIC_IRQChannelSubPriority = 0x0F;
 222:src/stm32l100c_discovery.c ****     NVIC_InitStructure.NVIC_IRQChannelCmd = ENABLE;
 223:src/stm32l100c_discovery.c **** 
 224:src/stm32l100c_discovery.c ****     NVIC_Init(&NVIC_InitStructure); 
 225:src/stm32l100c_discovery.c ****   }
 226:src/stm32l100c_discovery.c **** }
 301              		.loc 1 226 0
 302 00dc 06B0     		add	sp, sp, #24	@,,
 303              		@ sp needed	@
 304 00de 70BD     		pop	{r4, r5, r6, pc}	@
 305              	.L18:
 202:src/stm32l100c_discovery.c ****     SYSCFG_EXTILineConfig(BUTTON_PORT_SOURCE[Button], BUTTON_PIN_SOURCE[Button]);
 306              		.loc 1 202 0
 307 00e0 2146     		mov	r1, r4	@, tmp115
 308 00e2 2046     		mov	r0, r4	@, tmp115
 309 00e4 FFF7FEFF 		bl	SYSCFG_EXTILineConfig	@
 310              	.LVL14:
 209:src/stm32l100c_discovery.c ****       EXTI_InitStructure.EXTI_Trigger = EXTI_Trigger_Rising;
 311              		.loc 1 209 0
 312 00e8 A642     		cmp	r6, r4	@ Button,
 313 00ea 0CBF     		ite	eq	@
 314 00ec 0C23     		moveq	r3, #12	@, D.6651,
 315 00ee 0823     		movne	r3, #8	@, D.6651,
 216:src/stm32l100c_discovery.c ****     EXTI_Init(&EXTI_InitStructure);
 316              		.loc 1 216 0
 317 00f0 02A8     		add	r0, sp, #8	@,,
 318 00f2 8DF80D30 		strb	r3, [sp, #13]	@ D.6651, EXTI_InitStructure.EXTI_Trigger
 205:src/stm32l100c_discovery.c ****     EXTI_InitStructure.EXTI_Line = BUTTON_EXTI_LINE[Button];
 319              		.loc 1 205 0
 320 00f6 0295     		str	r5, [sp, #8]	@ Button_Mode, EXTI_InitStructure.EXTI_Line
 206:src/stm32l100c_discovery.c ****     EXTI_InitStructure.EXTI_Mode = EXTI_Mode_Interrupt;
 321              		.loc 1 206 0
ARM GAS  /tmp/cckM5Epi.s 			page 11


 322 00f8 8DF80C40 		strb	r4, [sp, #12]	@ tmp115, EXTI_InitStructure.EXTI_Mode
 215:src/stm32l100c_discovery.c ****     EXTI_InitStructure.EXTI_LineCmd = ENABLE;
 323              		.loc 1 215 0
 324 00fc 8DF80E50 		strb	r5, [sp, #14]	@ Button_Mode, EXTI_InitStructure.EXTI_LineCmd
 216:src/stm32l100c_discovery.c ****     EXTI_Init(&EXTI_InitStructure);
 325              		.loc 1 216 0
 326 0100 FFF7FEFF 		bl	EXTI_Init	@
 327              	.LVL15:
 220:src/stm32l100c_discovery.c ****     NVIC_InitStructure.NVIC_IRQChannelPreemptionPriority = 0x0F;
 328              		.loc 1 220 0
 329 0104 0F23     		movs	r3, #15	@ tmp134,
 219:src/stm32l100c_discovery.c ****     NVIC_InitStructure.NVIC_IRQChannel = BUTTON_IRQn[Button];
 330              		.loc 1 219 0
 331 0106 0622     		movs	r2, #6	@ tmp132,
 224:src/stm32l100c_discovery.c ****     NVIC_Init(&NVIC_InitStructure); 
 332              		.loc 1 224 0
 333 0108 01A8     		add	r0, sp, #4	@,,
 222:src/stm32l100c_discovery.c ****     NVIC_InitStructure.NVIC_IRQChannelCmd = ENABLE;
 334              		.loc 1 222 0
 335 010a 8DF80750 		strb	r5, [sp, #7]	@ Button_Mode, NVIC_InitStructure.NVIC_IRQChannelCmd
 219:src/stm32l100c_discovery.c ****     NVIC_InitStructure.NVIC_IRQChannel = BUTTON_IRQn[Button];
 336              		.loc 1 219 0
 337 010e 8DF80420 		strb	r2, [sp, #4]	@ tmp132, NVIC_InitStructure.NVIC_IRQChannel
 220:src/stm32l100c_discovery.c ****     NVIC_InitStructure.NVIC_IRQChannelPreemptionPriority = 0x0F;
 338              		.loc 1 220 0
 339 0112 8DF80530 		strb	r3, [sp, #5]	@ tmp134, NVIC_InitStructure.NVIC_IRQChannelPreemptionPriority
 221:src/stm32l100c_discovery.c ****     NVIC_InitStructure.NVIC_IRQChannelSubPriority = 0x0F;
 340              		.loc 1 221 0
 341 0116 8DF80630 		strb	r3, [sp, #6]	@ tmp134, NVIC_InitStructure.NVIC_IRQChannelSubPriority
 224:src/stm32l100c_discovery.c ****     NVIC_Init(&NVIC_InitStructure); 
 342              		.loc 1 224 0
 343 011a FFF7FEFF 		bl	NVIC_Init	@
 344              	.LVL16:
 345              		.loc 1 226 0
 346 011e 06B0     		add	sp, sp, #24	@,,
 347              		@ sp needed	@
 348 0120 70BD     		pop	{r4, r5, r6, pc}	@
 349              	.L20:
 350 0122 00BF     		.align	2
 351              	.L19:
 352 0124 00000000 		.word	.LANCHOR1
 353              		.cfi_endproc
 354              	.LFE60:
 355              		.size	STM_EVAL_PBInit, .-STM_EVAL_PBInit
 356              		.align	2
 357              		.global	STM_EVAL_PBGetState
 358              		.thumb
 359              		.thumb_func
 360              		.type	STM_EVAL_PBGetState, %function
 361              	STM_EVAL_PBGetState:
 362              	.LFB61:
 227:src/stm32l100c_discovery.c **** 
 228:src/stm32l100c_discovery.c **** /**
 229:src/stm32l100c_discovery.c ****   * @brief  Returns the selected Button state.
 230:src/stm32l100c_discovery.c ****   * @param  Button: Specifies the Button to be checked.
 231:src/stm32l100c_discovery.c ****   *   This parameter can be one of following parameters:
 232:src/stm32l100c_discovery.c ****   *     @arg BUTTON_USER: User Push Button    
ARM GAS  /tmp/cckM5Epi.s 			page 12


 233:src/stm32l100c_discovery.c ****   * @retval The Button GPIO pin value.
 234:src/stm32l100c_discovery.c ****   */
 235:src/stm32l100c_discovery.c **** uint32_t STM_EVAL_PBGetState(Button_TypeDef Button)
 236:src/stm32l100c_discovery.c **** {
 363              		.loc 1 236 0
 364              		.cfi_startproc
 365              		@ args = 0, pretend = 0, frame = 0
 366              		@ frame_needed = 0, uses_anonymous_args = 0
 367              	.LVL17:
 368 0128 08B5     		push	{r3, lr}	@
 369              	.LCFI4:
 370              		.cfi_def_cfa_offset 8
 371              		.cfi_offset 3, -8
 372              		.cfi_offset 14, -4
 237:src/stm32l100c_discovery.c ****   /* There is no Wakeup button on STM32f0-Discovery Kit */
 238:src/stm32l100c_discovery.c ****   return GPIO_ReadInputDataBit(BUTTON_PORT[Button], BUTTON_PIN[Button]);
 373              		.loc 1 238 0
 374 012a 044B     		ldr	r3, .L22	@ tmp116,
 375 012c 0121     		movs	r1, #1	@,
 376 012e 03EB8000 		add	r0, r3, r0, lsl #2	@, tmp117, tmp116, Button,
 377              	.LVL18:
 378 0132 8068     		ldr	r0, [r0, #8]	@, BUTTON_PORT
 379 0134 FFF7FEFF 		bl	GPIO_ReadInputDataBit	@
 380              	.LVL19:
 239:src/stm32l100c_discovery.c **** }
 381              		.loc 1 239 0
 382 0138 08BD     		pop	{r3, pc}	@
 383              	.L23:
 384 013a 00BF     		.align	2
 385              	.L22:
 386 013c 00000000 		.word	.LANCHOR1
 387              		.cfi_endproc
 388              	.LFE61:
 389              		.size	STM_EVAL_PBGetState, .-STM_EVAL_PBGetState
 390              		.global	BUTTON_IRQn
 391              		.global	BUTTON_PIN_SOURCE
 392              		.global	BUTTON_PORT_SOURCE
 393              		.global	BUTTON_EXTI_LINE
 394              		.global	BUTTON_CLK
 395              		.global	BUTTON_PIN
 396              		.global	BUTTON_PORT
 397              		.global	GPIO_CLK
 398              		.global	GPIO_PIN
 399              		.global	GPIO_PORT
 400              		.section	.rodata
 401              		.align	2
 402              		.set	.LANCHOR0,. + 0
 403              		.type	GPIO_CLK, %object
 404              		.size	GPIO_CLK, 8
 405              	GPIO_CLK:
 406 0000 04000000 		.word	4
 407 0004 04000000 		.word	4
 408              		.type	GPIO_PIN, %object
 409              		.size	GPIO_PIN, 4
 410              	GPIO_PIN:
 411 0008 0002     		.short	512
 412 000a 0001     		.short	256
ARM GAS  /tmp/cckM5Epi.s 			page 13


 413              		.type	BUTTON_IRQn, %object
 414              		.size	BUTTON_IRQn, 2
 415              	BUTTON_IRQn:
 416 000c 0600     		.short	6
 417 000e 0000     		.space	2
 418              		.type	BUTTON_PIN_SOURCE, %object
 419              		.size	BUTTON_PIN_SOURCE, 2
 420              	BUTTON_PIN_SOURCE:
 421 0010 0000     		.space	2
 422 0012 0000     		.space	2
 423              		.type	BUTTON_PORT_SOURCE, %object
 424              		.size	BUTTON_PORT_SOURCE, 2
 425              	BUTTON_PORT_SOURCE:
 426 0014 0000     		.space	2
 427 0016 0000     		.space	2
 428              		.type	BUTTON_EXTI_LINE, %object
 429              		.size	BUTTON_EXTI_LINE, 2
 430              	BUTTON_EXTI_LINE:
 431 0018 0100     		.short	1
 432 001a 0000     		.space	2
 433              		.type	BUTTON_CLK, %object
 434              		.size	BUTTON_CLK, 4
 435              	BUTTON_CLK:
 436 001c 01000000 		.word	1
 437              		.type	BUTTON_PIN, %object
 438              		.size	BUTTON_PIN, 2
 439              	BUTTON_PIN:
 440 0020 0100     		.short	1
 441 0022 0000     		.data
 442              		.align	2
 443              		.set	.LANCHOR1,. + 0
 444              		.type	GPIO_PORT, %object
 445              		.size	GPIO_PORT, 8
 446              	GPIO_PORT:
 447 0000 00080240 		.word	1073874944
 448 0004 00080240 		.word	1073874944
 449              		.type	BUTTON_PORT, %object
 450              		.size	BUTTON_PORT, 4
 451              	BUTTON_PORT:
 452 0008 00000240 		.word	1073872896
 453              		.text
 454              	.Letext0:
 455              		.file 2 "/home/zbanks/gcc-arm-none-eabi/arm-none-eabi/include/stdint.h"
 456              		.file 3 "./inc/stm32l1xx.h"
 457              		.file 4 "/home/zbanks//STM32L1xx_StdPeriph_Lib_V1.2.0/Libraries/STM32L1xx_StdPeriph_Driver/inc/stm
 458              		.file 5 "/home/zbanks//STM32L1xx_StdPeriph_Lib_V1.2.0/Libraries/STM32L1xx_StdPeriph_Driver/inc/stm
 459              		.file 6 "/home/zbanks//STM32L1xx_StdPeriph_Lib_V1.2.0/Libraries/STM32L1xx_StdPeriph_Driver/inc/mis
 460              		.file 7 "./inc/stm32l100c_discovery.h"
 461              		.file 8 "./inc/core_cm3.h"
 462              		.file 9 "/home/zbanks//STM32L1xx_StdPeriph_Lib_V1.2.0/Libraries/STM32L1xx_StdPeriph_Driver/inc/stm
 463              		.file 10 "/home/zbanks//STM32L1xx_StdPeriph_Lib_V1.2.0/Libraries/STM32L1xx_StdPeriph_Driver/inc/st