ARM GAS  /tmp/ccgHyjwV.s 			page 1


   1              		.syntax unified
   2              		.cpu cortex-m3
   3              		.fpu softvfp
   4              		.eabi_attribute 20, 1	@ Tag_ABI_FP_denormal
   5              		.eabi_attribute 21, 1	@ Tag_ABI_FP_exceptions
   6              		.eabi_attribute 23, 3	@ Tag_ABI_FP_number_model
   7              		.eabi_attribute 24, 1	@ Tag_ABI_align8_needed
   8              		.eabi_attribute 25, 1	@ Tag_ABI_align8_preserved
   9              		.eabi_attribute 26, 1	@ Tag_ABI_enum_size
  10              		.eabi_attribute 30, 2	@ Tag_ABI_optimization_goals
  11              		.eabi_attribute 34, 1	@ Tag_CPU_unaligned_access
  12              		.eabi_attribute 18, 4	@ Tag_ABI_PCS_wchar_t
  13              		.file	"system_stm32l1xx.c"
  14              	@ GNU C (GNU Tools for ARM Embedded Processors) version 4.8.3 20131129 (release) [ARM/embedded-4_8-
  15              	@	compiled by GNU C version 4.3.6, GMP version 4.3.2, MPFR version 2.4.2, MPC version 0.8.1
  16              	@ GGC heuristics: --param ggc-min-expand=100 --param ggc-min-heapsize=131072
  17              	@ options passed:  -I . -I ./inc
  18              	@ -I /home/zbanks//STM32L1xx_StdPeriph_Lib_V1.2.0/Libraries/CMSIS/Device/ST/STM32F0xx/Include
  19              	@ -I /home/zbanks//STM32L1xx_StdPeriph_Lib_V1.2.0/Libraries/CMSIS/Include
  20              	@ -I /home/zbanks//STM32L1xx_StdPeriph_Lib_V1.2.0/Libraries/STM32L1xx_StdPeriph_Driver/inc
  21              	@ -I ./inc -imultilib armv7-m
  22              	@ -iprefix /home/zbanks/gcc-arm-none-eabi/bin/../lib/gcc/arm-none-eabi/4.8.3/
  23              	@ -isysroot /home/zbanks/gcc-arm-none-eabi/bin/../arm-none-eabi
  24              	@ -MD src/system_stm32l1xx.d -MF .dep/system_stm32l1xx.o.d -MP
  25              	@ -MQ src/system_stm32l1xx.o -D__USES_INITFINI__ -D STM32L1XX
  26              	@ -D USE_STDPERIPH_DRIVER -D malloc_getpagesize=256 -D RUN_FROM_FLASH=1
  27              	@ src/system_stm32l1xx.c -mcpu=cortex-m3 -mthumb
  28              	@ -auxbase-strip src/system_stm32l1xx.o -g -gdwarf-2 -O3 -Wall
  29              	@ -Wstrict-prototypes -std=c99 -fomit-frame-pointer -fverbose-asm
  30              	@ options enabled:  -faggressive-loop-optimizations -fauto-inc-dec
  31              	@ -fbranch-count-reg -fcaller-saves -fcombine-stack-adjustments -fcommon
  32              	@ -fcompare-elim -fcprop-registers -fcrossjumping -fcse-follow-jumps
  33              	@ -fdefer-pop -fdelete-null-pointer-checks -fdevirtualize -fdwarf2-cfi-asm
  34              	@ -fearly-inlining -feliminate-unused-debug-types -fexpensive-optimizations
  35              	@ -fforward-propagate -ffunction-cse -fgcse -fgcse-after-reload -fgcse-lm
  36              	@ -fgnu-runtime -fguess-branch-probability -fhoist-adjacent-loads -fident
  37              	@ -fif-conversion -fif-conversion2 -findirect-inlining -finline
  38              	@ -finline-atomics -finline-functions -finline-functions-called-once
  39              	@ -finline-small-functions -fipa-cp -fipa-cp-clone -fipa-profile
  40              	@ -fipa-pure-const -fipa-reference -fipa-sra -fira-hoist-pressure
  41              	@ -fira-share-save-slots -fira-share-spill-slots -fivopts
  42              	@ -fkeep-static-consts -fleading-underscore -fmath-errno -fmerge-constants
  43              	@ -fmerge-debug-strings -fmove-loop-invariants -fomit-frame-pointer
  44              	@ -foptimize-register-move -foptimize-sibling-calls -foptimize-strlen
  45              	@ -fpartial-inlining -fpeephole -fpeephole2 -fpredictive-commoning
  46              	@ -fprefetch-loop-arrays -freg-struct-return -fregmove -freorder-blocks
  47              	@ -freorder-functions -frerun-cse-after-loop
  48              	@ -fsched-critical-path-heuristic -fsched-dep-count-heuristic
  49              	@ -fsched-group-heuristic -fsched-interblock -fsched-last-insn-heuristic
  50              	@ -fsched-pressure -fsched-rank-heuristic -fsched-spec
  51              	@ -fsched-spec-insn-heuristic -fsched-stalled-insns-dep -fschedule-insns
  52              	@ -fschedule-insns2 -fsection-anchors -fshow-column -fshrink-wrap
  53              	@ -fsigned-zeros -fsplit-ivs-in-unroller -fsplit-wide-types
  54              	@ -fstrict-aliasing -fstrict-overflow -fstrict-volatile-bitfields
  55              	@ -fsync-libcalls -fthread-jumps -ftoplevel-reorder -ftrapping-math
  56              	@ -ftree-bit-ccp -ftree-builtin-call-dce -ftree-ccp -ftree-ch
  57              	@ -ftree-coalesce-vars -ftree-copy-prop -ftree-copyrename -ftree-cselim
ARM GAS  /tmp/ccgHyjwV.s 			page 2


  58              	@ -ftree-dce -ftree-dominator-opts -ftree-dse -ftree-forwprop -ftree-fre
  59              	@ -ftree-loop-distribute-patterns -ftree-loop-if-convert -ftree-loop-im
  60              	@ -ftree-loop-ivcanon -ftree-loop-optimize -ftree-parallelize-loops=
  61              	@ -ftree-partial-pre -ftree-phiprop -ftree-pre -ftree-pta -ftree-reassoc
  62              	@ -ftree-scev-cprop -ftree-sink -ftree-slp-vectorize -ftree-slsr -ftree-sra
  63              	@ -ftree-switch-conversion -ftree-tail-merge -ftree-ter
  64              	@ -ftree-vect-loop-version -ftree-vectorize -ftree-vrp -funit-at-a-time
  65              	@ -funswitch-loops -fvar-tracking -fvar-tracking-assignments
  66              	@ -fvect-cost-model -fverbose-asm -fzero-initialized-in-bss
  67              	@ -mfix-cortex-m3-ldrd -mlittle-endian -mpic-data-is-text-relative
  68              	@ -msched-prolog -mthumb -munaligned-access -mvectorize-with-neon-quad
  69              	
  70              		.text
  71              	.Ltext0:
  72              		.cfi_sections	.debug_frame
  73              		.align	2
  74              		.global	SystemInit
  75              		.thumb
  76              		.thumb_func
  77              		.type	SystemInit, %function
  78              	SystemInit:
  79              	.LFB56:
  80              		.file 1 "src/system_stm32l1xx.c"
   1:src/system_stm32l1xx.c **** /**
   2:src/system_stm32l1xx.c ****   ******************************************************************************
   3:src/system_stm32l1xx.c ****   * @file    system_stm32l1xx.c
   4:src/system_stm32l1xx.c ****   * @author  MCD Application Team
   5:src/system_stm32l1xx.c ****   * @version V1.0.0
   6:src/system_stm32l1xx.c ****   * @date    29-July-2013
   7:src/system_stm32l1xx.c ****   * @brief   CMSIS Cortex-M3 Device Peripheral Access Layer System Source File.
   8:src/system_stm32l1xx.c ****   *          This file contains the system clock configuration for STM32L1xx Ultra
   9:src/system_stm32l1xx.c ****   *          Low power devices, and is generated by the clock configuration 
  10:src/system_stm32l1xx.c ****   *          tool STM32L1xx_Clock_Configuration_V1.1.0.xls
  11:src/system_stm32l1xx.c ****   *             
  12:src/system_stm32l1xx.c ****   * 1.  This file provides two functions and one global variable to be called from 
  13:src/system_stm32l1xx.c ****   *     user application:
  14:src/system_stm32l1xx.c ****   *      - SystemInit(): Setups the system clock (System clock source, PLL Multiplier
  15:src/system_stm32l1xx.c ****   *                      and Divider factors, AHB/APBx prescalers and Flash settings),
  16:src/system_stm32l1xx.c ****   *                      depending on the configuration made in the clock xls tool. 
  17:src/system_stm32l1xx.c ****   *                      This function is called at startup just after reset and 
  18:src/system_stm32l1xx.c ****   *                      before branch to main program. This call is made inside
  19:src/system_stm32l1xx.c ****   *                      the "startup_stm32l1xx_xx.s" file.
  20:src/system_stm32l1xx.c ****   *                        
  21:src/system_stm32l1xx.c ****   *      - SystemCoreClock variable: Contains the core clock (HCLK), it can be used
  22:src/system_stm32l1xx.c ****   *                                  by the user application to setup the SysTick 
  23:src/system_stm32l1xx.c ****   *                                  timer or configure other parameters.
  24:src/system_stm32l1xx.c ****   *                                     
  25:src/system_stm32l1xx.c ****   *      - SystemCoreClockUpdate(): Updates the variable SystemCoreClock and must
  26:src/system_stm32l1xx.c ****   *                                 be called whenever the core clock is changed
  27:src/system_stm32l1xx.c ****   *                                 during program execution.   
  28:src/system_stm32l1xx.c ****   *      
  29:src/system_stm32l1xx.c ****   * 2. After each device reset the MSI (2.1 MHz Range) is used as system clock source.
  30:src/system_stm32l1xx.c ****   *    Then SystemInit() function is called, in "startup_stm32l1xx_xx.s" file, to
  31:src/system_stm32l1xx.c ****   *    configure the system clock before to branch to main program.    
  32:src/system_stm32l1xx.c ****   *    
  33:src/system_stm32l1xx.c ****   * 3. If the system clock source selected by user fails to startup, the SystemInit()
  34:src/system_stm32l1xx.c ****   *    function will do nothing and MSI still used as system clock source. User can 
ARM GAS  /tmp/ccgHyjwV.s 			page 3


  35:src/system_stm32l1xx.c ****   *    add some code to deal with this issue inside the SetSysClock() function.       
  36:src/system_stm32l1xx.c ****   * 
  37:src/system_stm32l1xx.c ****   * 4. The default value of HSE crystal is set to 8MHz, refer to "HSE_VALUE" define
  38:src/system_stm32l1xx.c ****   *    in "stm32l1xx.h" file. When HSE is used as system clock source, directly or
  39:src/system_stm32l1xx.c ****   *    through PLL, and you are using different crystal you have to adapt the HSE
  40:src/system_stm32l1xx.c ****   *    value to your own configuration.
  41:src/system_stm32l1xx.c ****   * 
  42:src/system_stm32l1xx.c ****   * 5. This file configures the system clock as follows:  
  43:src/system_stm32l1xx.c ****   *=============================================================================
  44:src/system_stm32l1xx.c ****   *                         System Clock Configuration
  45:src/system_stm32l1xx.c ****   *=============================================================================
  46:src/system_stm32l1xx.c ****   *        System Clock source          | PLL(HSI)
  47:src/system_stm32l1xx.c ****   *----------------------------------------------------------------------------- 
  48:src/system_stm32l1xx.c ****   *        SYSCLK                       | 32000000 Hz
  49:src/system_stm32l1xx.c ****   *----------------------------------------------------------------------------- 
  50:src/system_stm32l1xx.c ****   *        HCLK                         | 32000000 Hz
  51:src/system_stm32l1xx.c ****   *----------------------------------------------------------------------------- 
  52:src/system_stm32l1xx.c ****   *        AHB Prescaler                | 1
  53:src/system_stm32l1xx.c ****   *----------------------------------------------------------------------------- 
  54:src/system_stm32l1xx.c ****   *        APB1 Prescaler               | 1
  55:src/system_stm32l1xx.c ****   *----------------------------------------------------------------------------- 
  56:src/system_stm32l1xx.c ****   *        APB2 Prescaler               | 1
  57:src/system_stm32l1xx.c ****   *----------------------------------------------------------------------------- 
  58:src/system_stm32l1xx.c ****   *        HSE Frequency                | 8000000 Hz
  59:src/system_stm32l1xx.c ****   *----------------------------------------------------------------------------- 
  60:src/system_stm32l1xx.c ****   *        PLL DIV                      | 2
  61:src/system_stm32l1xx.c ****   *----------------------------------------------------------------------------- 
  62:src/system_stm32l1xx.c ****   *        PLL MUL                      | 4
  63:src/system_stm32l1xx.c ****   *----------------------------------------------------------------------------- 
  64:src/system_stm32l1xx.c ****   *        VDD                          | 3.3 V
  65:src/system_stm32l1xx.c ****   *----------------------------------------------------------------------------- 
  66:src/system_stm32l1xx.c ****   *        Vcore                        | 1.8 V (Range 1)
  67:src/system_stm32l1xx.c ****   *----------------------------------------------------------------------------- 
  68:src/system_stm32l1xx.c ****   *        Flash Latency                | 1 WS
  69:src/system_stm32l1xx.c ****   *----------------------------------------------------------------------------- 
  70:src/system_stm32l1xx.c ****   *        Require 48MHz for USB clock  | Disabled
  71:src/system_stm32l1xx.c ****   *----------------------------------------------------------------------------- 
  72:src/system_stm32l1xx.c ****   *=============================================================================
  73:src/system_stm32l1xx.c ****   ******************************************************************************
  74:src/system_stm32l1xx.c ****   * @attention
  75:src/system_stm32l1xx.c ****   *
  76:src/system_stm32l1xx.c ****   * <h2><center>&copy; COPYRIGHT 2013 STMicroelectronics</center></h2>
  77:src/system_stm32l1xx.c ****   *
  78:src/system_stm32l1xx.c ****   * Licensed under MCD-ST Liberty SW License Agreement V2, (the "License");
  79:src/system_stm32l1xx.c ****   * You may not use this file except in compliance with the License.
  80:src/system_stm32l1xx.c ****   * You may obtain a copy of the License at:
  81:src/system_stm32l1xx.c ****   *
  82:src/system_stm32l1xx.c ****   *        http://www.st.com/software_license_agreement_liberty_v2
  83:src/system_stm32l1xx.c ****   *
  84:src/system_stm32l1xx.c ****   * Unless required by applicable law or agreed to in writing, software 
  85:src/system_stm32l1xx.c ****   * distributed under the License is distributed on an "AS IS" BASIS, 
  86:src/system_stm32l1xx.c ****   * WITHOUT WARRANTIES OR CONDITIONS OF ANY KIND, either express or implied.
  87:src/system_stm32l1xx.c ****   * See the License for the specific language governing permissions and
  88:src/system_stm32l1xx.c ****   * limitations under the License.
  89:src/system_stm32l1xx.c ****   *
  90:src/system_stm32l1xx.c ****   ******************************************************************************
  91:src/system_stm32l1xx.c ****   */ 
ARM GAS  /tmp/ccgHyjwV.s 			page 4


  92:src/system_stm32l1xx.c **** 
  93:src/system_stm32l1xx.c **** /** @addtogroup CMSIS
  94:src/system_stm32l1xx.c ****   * @{
  95:src/system_stm32l1xx.c ****   */
  96:src/system_stm32l1xx.c **** 
  97:src/system_stm32l1xx.c **** /** @addtogroup stm32l1xx_system
  98:src/system_stm32l1xx.c ****   * @{
  99:src/system_stm32l1xx.c ****   */  
 100:src/system_stm32l1xx.c ****   
 101:src/system_stm32l1xx.c **** /** @addtogroup STM32L1xx_System_Private_Includes
 102:src/system_stm32l1xx.c ****   * @{
 103:src/system_stm32l1xx.c ****   */
 104:src/system_stm32l1xx.c **** 
 105:src/system_stm32l1xx.c **** #include "stm32l1xx.h"
 106:src/system_stm32l1xx.c **** 
 107:src/system_stm32l1xx.c **** /**
 108:src/system_stm32l1xx.c ****   * @}
 109:src/system_stm32l1xx.c ****   */
 110:src/system_stm32l1xx.c **** 
 111:src/system_stm32l1xx.c **** /** @addtogroup STM32L1xx_System_Private_TypesDefinitions
 112:src/system_stm32l1xx.c ****   * @{
 113:src/system_stm32l1xx.c ****   */
 114:src/system_stm32l1xx.c **** 
 115:src/system_stm32l1xx.c **** /**
 116:src/system_stm32l1xx.c ****   * @}
 117:src/system_stm32l1xx.c ****   */
 118:src/system_stm32l1xx.c **** 
 119:src/system_stm32l1xx.c **** /** @addtogroup STM32L1xx_System_Private_Defines
 120:src/system_stm32l1xx.c ****   * @{
 121:src/system_stm32l1xx.c ****   */
 122:src/system_stm32l1xx.c **** 
 123:src/system_stm32l1xx.c **** /*!< Uncomment the following line if you need to relocate your vector Table in
 124:src/system_stm32l1xx.c ****      Internal SRAM. */ 
 125:src/system_stm32l1xx.c **** /* #define VECT_TAB_SRAM */
 126:src/system_stm32l1xx.c **** #define VECT_TAB_OFFSET  0x0 /*!< Vector Table base offset field. 
 127:src/system_stm32l1xx.c ****                                   This value must be a multiple of 0x200. */
 128:src/system_stm32l1xx.c **** /**
 129:src/system_stm32l1xx.c ****   * @}
 130:src/system_stm32l1xx.c ****   */
 131:src/system_stm32l1xx.c **** 
 132:src/system_stm32l1xx.c **** /** @addtogroup STM32L1xx_System_Private_Macros
 133:src/system_stm32l1xx.c ****   * @{
 134:src/system_stm32l1xx.c ****   */
 135:src/system_stm32l1xx.c **** 
 136:src/system_stm32l1xx.c **** /**
 137:src/system_stm32l1xx.c ****   * @}
 138:src/system_stm32l1xx.c ****   */
 139:src/system_stm32l1xx.c **** 
 140:src/system_stm32l1xx.c **** /** @addtogroup STM32L1xx_System_Private_Variables
 141:src/system_stm32l1xx.c ****   * @{
 142:src/system_stm32l1xx.c ****   */
 143:src/system_stm32l1xx.c **** uint32_t SystemCoreClock    = 32000000;
 144:src/system_stm32l1xx.c **** __I uint8_t PLLMulTable[9] = {3, 4, 6, 8, 12, 16, 24, 32, 48};
 145:src/system_stm32l1xx.c **** __I uint8_t AHBPrescTable[16] = {0, 0, 0, 0, 0, 0, 0, 0, 1, 2, 3, 4, 6, 7, 8, 9};
 146:src/system_stm32l1xx.c **** 
 147:src/system_stm32l1xx.c **** /**
 148:src/system_stm32l1xx.c ****   * @}
ARM GAS  /tmp/ccgHyjwV.s 			page 5


 149:src/system_stm32l1xx.c ****   */
 150:src/system_stm32l1xx.c **** 
 151:src/system_stm32l1xx.c **** /** @addtogroup STM32L1xx_System_Private_FunctionPrototypes
 152:src/system_stm32l1xx.c ****   * @{
 153:src/system_stm32l1xx.c ****   */
 154:src/system_stm32l1xx.c **** 
 155:src/system_stm32l1xx.c **** static void SetSysClock(void);
 156:src/system_stm32l1xx.c **** 
 157:src/system_stm32l1xx.c **** /**
 158:src/system_stm32l1xx.c ****   * @}
 159:src/system_stm32l1xx.c ****   */
 160:src/system_stm32l1xx.c **** 
 161:src/system_stm32l1xx.c **** /** @addtogroup STM32L1xx_System_Private_Functions
 162:src/system_stm32l1xx.c ****   * @{
 163:src/system_stm32l1xx.c ****   */
 164:src/system_stm32l1xx.c **** 
 165:src/system_stm32l1xx.c **** /**
 166:src/system_stm32l1xx.c ****   * @brief  Setup the microcontroller system.
 167:src/system_stm32l1xx.c ****   *         Initialize the Embedded Flash Interface, the PLL and update the 
 168:src/system_stm32l1xx.c ****   *         SystemCoreClock variable.
 169:src/system_stm32l1xx.c ****   * @param  None
 170:src/system_stm32l1xx.c ****   * @retval None
 171:src/system_stm32l1xx.c ****   */
 172:src/system_stm32l1xx.c **** void SystemInit (void)
 173:src/system_stm32l1xx.c **** {
  81              		.loc 1 173 0
  82              		.cfi_startproc
  83              		@ args = 0, pretend = 0, frame = 8
  84              		@ frame_needed = 0, uses_anonymous_args = 0
  85              		@ link register save eliminated.
 174:src/system_stm32l1xx.c ****   /*!< Set MSION bit */
 175:src/system_stm32l1xx.c ****   RCC->CR |= (uint32_t)0x00000100;
  86              		.loc 1 175 0
  87 0000 3F4B     		ldr	r3, .L22	@ tmp156,
 173:src/system_stm32l1xx.c **** {
  88              		.loc 1 173 0
  89 0002 30B4     		push	{r4, r5}	@
  90              	.LCFI0:
  91              		.cfi_def_cfa_offset 8
  92              		.cfi_offset 4, -8
  93              		.cfi_offset 5, -4
  94              		.loc 1 175 0
  95 0004 1A68     		ldr	r2, [r3]	@ D.6657, MEM[(struct RCC_TypeDef *)1073887232B].CR
 176:src/system_stm32l1xx.c **** 
 177:src/system_stm32l1xx.c ****   /*!< Reset SW[1:0], HPRE[3:0], PPRE1[2:0], PPRE2[2:0], MCOSEL[2:0] and MCOPRE[2:0] bits */
 178:src/system_stm32l1xx.c ****   //RCC->CFGR &= (uint32_t)0x88FFC00C;
 179:src/system_stm32l1xx.c ****   RCC->CFGR &= (uint32_t)0x88FFC00C;
  96              		.loc 1 179 0
  97 0006 3F48     		ldr	r0, .L22+4	@ D.6657,
 175:src/system_stm32l1xx.c ****   RCC->CR |= (uint32_t)0x00000100;
  98              		.loc 1 175 0
  99 0008 42F48072 		orr	r2, r2, #256	@ D.6657, D.6657,
 100 000c 1A60     		str	r2, [r3]	@ D.6657, MEM[(struct RCC_TypeDef *)1073887232B].CR
 101              		.loc 1 179 0
 102 000e 9C68     		ldr	r4, [r3, #8]	@ D.6657, MEM[(struct RCC_TypeDef *)1073887232B].CFGR
 180:src/system_stm32l1xx.c ****   
 181:src/system_stm32l1xx.c ****   /*!< Reset HSION, HSEON, CSSON and PLLON bits */
ARM GAS  /tmp/ccgHyjwV.s 			page 6


 182:src/system_stm32l1xx.c ****   RCC->CR &= (uint32_t)0xEEFEFFFE;
 183:src/system_stm32l1xx.c **** 
 184:src/system_stm32l1xx.c ****   /*!< Reset HSEBYP bit */
 185:src/system_stm32l1xx.c ****   RCC->CR &= (uint32_t)0xFFFBFFFF;
 186:src/system_stm32l1xx.c **** 
 187:src/system_stm32l1xx.c ****   /*!< Reset PLLSRC, PLLMUL[3:0] and PLLDIV[1:0] bits */
 188:src/system_stm32l1xx.c ****   RCC->CFGR &= (uint32_t)0xFF02FFFF;
 189:src/system_stm32l1xx.c **** 
 190:src/system_stm32l1xx.c ****   /*!< Disable all interrupts */
 191:src/system_stm32l1xx.c ****   RCC->CIR = 0x00000000;
 103              		.loc 1 191 0
 104 0010 0021     		movs	r1, #0	@ tmp169,
 179:src/system_stm32l1xx.c ****   RCC->CFGR &= (uint32_t)0x88FFC00C;
 105              		.loc 1 179 0
 106 0012 2040     		ands	r0, r0, r4	@, D.6657, D.6657, D.6657
 107 0014 9860     		str	r0, [r3, #8]	@ D.6657, MEM[(struct RCC_TypeDef *)1073887232B].CFGR
 182:src/system_stm32l1xx.c ****   RCC->CR &= (uint32_t)0xEEFEFFFE;
 108              		.loc 1 182 0
 109 0016 1868     		ldr	r0, [r3]	@ D.6657, MEM[(struct RCC_TypeDef *)1073887232B].CR
 173:src/system_stm32l1xx.c **** {
 110              		.loc 1 173 0
 111 0018 82B0     		sub	sp, sp, #8	@,,
 112              	.LCFI1:
 113              		.cfi_def_cfa_offset 16
 182:src/system_stm32l1xx.c ****   RCC->CR &= (uint32_t)0xEEFEFFFE;
 114              		.loc 1 182 0
 115 001a 20F08850 		bic	r0, r0, #285212672	@ D.6657, D.6657,
 116 001e 20F00110 		bic	r0, r0, #65537	@ D.6657, D.6657,
 117 0022 1860     		str	r0, [r3]	@ D.6657, MEM[(struct RCC_TypeDef *)1073887232B].CR
 185:src/system_stm32l1xx.c ****   RCC->CR &= (uint32_t)0xFFFBFFFF;
 118              		.loc 1 185 0
 119 0024 1868     		ldr	r0, [r3]	@ D.6657, MEM[(struct RCC_TypeDef *)1073887232B].CR
 120              	.LBB4:
 121              	.LBB5:
 192:src/system_stm32l1xx.c **** 
 193:src/system_stm32l1xx.c ****   /* Configure the System clock frequency, AHB/APBx prescalers and Flash settings */
 194:src/system_stm32l1xx.c ****   SetSysClock();
 195:src/system_stm32l1xx.c **** 
 196:src/system_stm32l1xx.c **** #ifdef VECT_TAB_SRAM
 197:src/system_stm32l1xx.c ****   SCB->VTOR = SRAM_BASE | VECT_TAB_OFFSET; /* Vector Table Relocation in Internal SRAM. */
 198:src/system_stm32l1xx.c **** #else
 199:src/system_stm32l1xx.c ****   SCB->VTOR = FLASH_BASE | VECT_TAB_OFFSET; /* Vector Table Relocation in Internal FLASH. */
 200:src/system_stm32l1xx.c **** #endif
 201:src/system_stm32l1xx.c **** }
 202:src/system_stm32l1xx.c **** 
 203:src/system_stm32l1xx.c **** /**
 204:src/system_stm32l1xx.c ****   * @brief  Update SystemCoreClock according to Clock Register Values
 205:src/system_stm32l1xx.c ****   *         The SystemCoreClock variable contains the core clock (HCLK), it can
 206:src/system_stm32l1xx.c ****   *         be used by the user application to setup the SysTick timer or configure
 207:src/system_stm32l1xx.c ****   *         other parameters.
 208:src/system_stm32l1xx.c ****   *           
 209:src/system_stm32l1xx.c ****   * @note   Each time the core clock (HCLK) changes, this function must be called
 210:src/system_stm32l1xx.c ****   *         to update SystemCoreClock variable value. Otherwise, any configuration
 211:src/system_stm32l1xx.c ****   *         based on this variable will be incorrect.         
 212:src/system_stm32l1xx.c ****   *     
 213:src/system_stm32l1xx.c ****   * @note   - The system frequency computed by this function is not the real 
 214:src/system_stm32l1xx.c ****   *           frequency in the chip. It is calculated based on the predefined 
ARM GAS  /tmp/ccgHyjwV.s 			page 7


 215:src/system_stm32l1xx.c ****   *           constant and the selected clock source:
 216:src/system_stm32l1xx.c ****   *             
 217:src/system_stm32l1xx.c ****   *           - If SYSCLK source is MSI, SystemCoreClock will contain the MSI 
 218:src/system_stm32l1xx.c ****   *             value as defined by the MSI range.
 219:src/system_stm32l1xx.c ****   *                                   
 220:src/system_stm32l1xx.c ****   *           - If SYSCLK source is HSI, SystemCoreClock will contain the HSI_VALUE(*)
 221:src/system_stm32l1xx.c ****   *                                              
 222:src/system_stm32l1xx.c ****   *           - If SYSCLK source is HSE, SystemCoreClock will contain the HSE_VALUE(**)
 223:src/system_stm32l1xx.c ****   *                          
 224:src/system_stm32l1xx.c ****   *           - If SYSCLK source is PLL, SystemCoreClock will contain the HSE_VALUE(**) 
 225:src/system_stm32l1xx.c ****   *             or HSI_VALUE(*) multiplied/divided by the PLL factors.
 226:src/system_stm32l1xx.c ****   *         
 227:src/system_stm32l1xx.c ****   *         (*) HSI_VALUE is a constant defined in stm32l1xx.h file (default value
 228:src/system_stm32l1xx.c ****   *             16 MHz) but the real value may vary depending on the variations
 229:src/system_stm32l1xx.c ****   *             in voltage and temperature.   
 230:src/system_stm32l1xx.c ****   *    
 231:src/system_stm32l1xx.c ****   *         (**) HSE_VALUE is a constant defined in stm32l1xx.h file (default value
 232:src/system_stm32l1xx.c ****   *              8 MHz), user has to ensure that HSE_VALUE is same as the real
 233:src/system_stm32l1xx.c ****   *              frequency of the crystal used. Otherwise, this function may
 234:src/system_stm32l1xx.c ****   *              have wrong result.
 235:src/system_stm32l1xx.c ****   *                
 236:src/system_stm32l1xx.c ****   *         - The result of this function could be not correct when using fractional
 237:src/system_stm32l1xx.c ****   *           value for HSE crystal.  
 238:src/system_stm32l1xx.c ****   * @param  None
 239:src/system_stm32l1xx.c ****   * @retval None
 240:src/system_stm32l1xx.c ****   */
 241:src/system_stm32l1xx.c **** void SystemCoreClockUpdate (void)
 242:src/system_stm32l1xx.c **** {
 243:src/system_stm32l1xx.c ****   uint32_t tmp = 0, pllmul = 0, plldiv = 0, pllsource = 0, msirange = 0;
 244:src/system_stm32l1xx.c **** 
 245:src/system_stm32l1xx.c ****   /* Get SYSCLK source -------------------------------------------------------*/
 246:src/system_stm32l1xx.c ****   tmp = RCC->CFGR & RCC_CFGR_SWS;
 247:src/system_stm32l1xx.c ****   
 248:src/system_stm32l1xx.c ****   switch (tmp)
 249:src/system_stm32l1xx.c ****   {
 250:src/system_stm32l1xx.c ****     case 0x00:  /* MSI used as system clock */
 251:src/system_stm32l1xx.c ****       msirange = (RCC->ICSCR & RCC_ICSCR_MSIRANGE) >> 13;
 252:src/system_stm32l1xx.c ****       SystemCoreClock = (32768 * (1 << (msirange + 1)));
 253:src/system_stm32l1xx.c ****       break;
 254:src/system_stm32l1xx.c ****     case 0x04:  /* HSI used as system clock */
 255:src/system_stm32l1xx.c ****       SystemCoreClock = HSI_VALUE;
 256:src/system_stm32l1xx.c ****       break;
 257:src/system_stm32l1xx.c ****     case 0x08:  /* HSE used as system clock */
 258:src/system_stm32l1xx.c ****       SystemCoreClock = HSE_VALUE;
 259:src/system_stm32l1xx.c ****       break;
 260:src/system_stm32l1xx.c ****     case 0x0C:  /* PLL used as system clock */
 261:src/system_stm32l1xx.c ****       /* Get PLL clock source and multiplication factor ----------------------*/
 262:src/system_stm32l1xx.c ****       pllmul = RCC->CFGR & RCC_CFGR_PLLMUL;
 263:src/system_stm32l1xx.c ****       plldiv = RCC->CFGR & RCC_CFGR_PLLDIV;
 264:src/system_stm32l1xx.c ****       pllmul = PLLMulTable[(pllmul >> 18)];
 265:src/system_stm32l1xx.c ****       plldiv = (plldiv >> 22) + 1;
 266:src/system_stm32l1xx.c ****       
 267:src/system_stm32l1xx.c ****       pllsource = RCC->CFGR & RCC_CFGR_PLLSRC;
 268:src/system_stm32l1xx.c **** 
 269:src/system_stm32l1xx.c ****       if (pllsource == 0x00)
 270:src/system_stm32l1xx.c ****       {
 271:src/system_stm32l1xx.c ****         /* HSI oscillator clock selected as PLL clock entry */
ARM GAS  /tmp/ccgHyjwV.s 			page 8


 272:src/system_stm32l1xx.c ****         SystemCoreClock = (((HSI_VALUE) * pllmul) / plldiv);
 273:src/system_stm32l1xx.c ****       }
 274:src/system_stm32l1xx.c ****       else
 275:src/system_stm32l1xx.c ****       {
 276:src/system_stm32l1xx.c ****         /* HSE selected as PLL clock entry */
 277:src/system_stm32l1xx.c ****         SystemCoreClock = (((HSE_VALUE) * pllmul) / plldiv);
 278:src/system_stm32l1xx.c ****       }
 279:src/system_stm32l1xx.c ****       break;
 280:src/system_stm32l1xx.c ****     default: /* MSI used as system clock */
 281:src/system_stm32l1xx.c ****       msirange = (RCC->ICSCR & RCC_ICSCR_MSIRANGE) >> 13;
 282:src/system_stm32l1xx.c ****       SystemCoreClock = (32768 * (1 << (msirange + 1)));
 283:src/system_stm32l1xx.c ****       break;
 284:src/system_stm32l1xx.c ****   }
 285:src/system_stm32l1xx.c ****   /* Compute HCLK clock frequency --------------------------------------------*/
 286:src/system_stm32l1xx.c ****   /* Get HCLK prescaler */
 287:src/system_stm32l1xx.c ****   tmp = AHBPrescTable[((RCC->CFGR & RCC_CFGR_HPRE) >> 4)];
 288:src/system_stm32l1xx.c ****   /* HCLK clock frequency */
 289:src/system_stm32l1xx.c ****   SystemCoreClock >>= tmp;
 290:src/system_stm32l1xx.c **** }
 291:src/system_stm32l1xx.c **** 
 292:src/system_stm32l1xx.c **** /**
 293:src/system_stm32l1xx.c ****   * @brief  Configures the System clock frequency, AHB/APBx prescalers and Flash 
 294:src/system_stm32l1xx.c ****   *         settings.
 295:src/system_stm32l1xx.c ****   * @note   This function should be called only once the RCC clock configuration  
 296:src/system_stm32l1xx.c ****   *         is reset to the default reset state (done in SystemInit() function).             
 297:src/system_stm32l1xx.c ****   * @param  None
 298:src/system_stm32l1xx.c ****   * @retval None
 299:src/system_stm32l1xx.c ****   */
 300:src/system_stm32l1xx.c **** static void SetSysClock(void)
 301:src/system_stm32l1xx.c **** {
 302:src/system_stm32l1xx.c ****   __IO uint32_t StartUpCounter = 0, HSIStatus = 0;
 303:src/system_stm32l1xx.c ****   
 304:src/system_stm32l1xx.c ****   /* SYSCLK, HCLK, PCLK2 and PCLK1 configuration ---------------------------*/
 305:src/system_stm32l1xx.c ****   /* Enable HSI */
 306:src/system_stm32l1xx.c ****   RCC->CR |= ((uint32_t)RCC_CR_HSION);
 307:src/system_stm32l1xx.c ****  
 308:src/system_stm32l1xx.c ****   /* Wait till HSI is ready and if Time out is reached exit */
 309:src/system_stm32l1xx.c ****   do
 310:src/system_stm32l1xx.c ****   {
 311:src/system_stm32l1xx.c ****     HSIStatus = RCC->CR & RCC_CR_HSIRDY;
 122              		.loc 1 311 0
 123 0026 1A46     		mov	r2, r3	@ tmp216, tmp156
 124              	.LBE5:
 125              	.LBE4:
 185:src/system_stm32l1xx.c ****   RCC->CR &= (uint32_t)0xFFFBFFFF;
 126              		.loc 1 185 0
 127 0028 20F48020 		bic	r0, r0, #262144	@ D.6657, D.6657,
 128 002c 1860     		str	r0, [r3]	@ D.6657, MEM[(struct RCC_TypeDef *)1073887232B].CR
 188:src/system_stm32l1xx.c ****   RCC->CFGR &= (uint32_t)0xFF02FFFF;
 129              		.loc 1 188 0
 130 002e 9868     		ldr	r0, [r3, #8]	@ D.6657, MEM[(struct RCC_TypeDef *)1073887232B].CFGR
 131 0030 20F47D00 		bic	r0, r0, #16580608	@ D.6657, D.6657,
 132 0034 9860     		str	r0, [r3, #8]	@ D.6657, MEM[(struct RCC_TypeDef *)1073887232B].CFGR
 191:src/system_stm32l1xx.c ****   RCC->CIR = 0x00000000;
 133              		.loc 1 191 0
 134 0036 D960     		str	r1, [r3, #12]	@ tmp169, MEM[(struct RCC_TypeDef *)1073887232B].CIR
 135              	.LBB8:
ARM GAS  /tmp/ccgHyjwV.s 			page 9


 136              	.LBB6:
 302:src/system_stm32l1xx.c ****   __IO uint32_t StartUpCounter = 0, HSIStatus = 0;
 137              		.loc 1 302 0
 138 0038 0091     		str	r1, [sp]	@ tmp169, StartUpCounter
 139 003a 0191     		str	r1, [sp, #4]	@ tmp169, HSIStatus
 306:src/system_stm32l1xx.c ****   RCC->CR |= ((uint32_t)RCC_CR_HSION);
 140              		.loc 1 306 0
 141 003c 1968     		ldr	r1, [r3]	@ D.6657, MEM[(struct RCC_TypeDef *)1073887232B].CR
 142 003e 41F00101 		orr	r1, r1, #1	@ D.6657, D.6657,
 143 0042 1960     		str	r1, [r3]	@ D.6657, MEM[(struct RCC_TypeDef *)1073887232B].CR
 144 0044 03E0     		b	.L3	@
 145              	.L21:
 312:src/system_stm32l1xx.c ****   } while((HSIStatus == 0) && (StartUpCounter != HSI_STARTUP_TIMEOUT));
 146              		.loc 1 312 0
 147 0046 009B     		ldr	r3, [sp]	@ StartUpCounter.2, StartUpCounter
 148 0048 B3F5A06F 		cmp	r3, #1280	@ StartUpCounter.2,
 149 004c 06D0     		beq	.L2	@,
 150              	.L3:
 311:src/system_stm32l1xx.c ****     HSIStatus = RCC->CR & RCC_CR_HSIRDY;
 151              		.loc 1 311 0
 152 004e 1368     		ldr	r3, [r2]	@ D.6657, MEM[(struct RCC_TypeDef *)1073887232B].CR
 153 0050 03F00203 		and	r3, r3, #2	@ HSIStatus.0, D.6657,
 154 0054 0193     		str	r3, [sp, #4]	@ HSIStatus.0, HSIStatus
 155              		.loc 1 312 0
 156 0056 019B     		ldr	r3, [sp, #4]	@ HSIStatus.1, HSIStatus
 157 0058 002B     		cmp	r3, #0	@ HSIStatus.1
 158 005a F4D0     		beq	.L21	@
 159              	.L2:
 313:src/system_stm32l1xx.c **** 
 314:src/system_stm32l1xx.c ****   if ((RCC->CR & RCC_CR_HSIRDY) != RESET)
 160              		.loc 1 314 0
 161 005c 284B     		ldr	r3, .L22	@ tmp175,
 162 005e 1B68     		ldr	r3, [r3]	@ D.6657, MEM[(struct RCC_TypeDef *)1073887232B].CR
 163 0060 13F00203 		ands	r3, r3, #2	@ D.6657, D.6657,
 315:src/system_stm32l1xx.c ****   {
 316:src/system_stm32l1xx.c ****     HSIStatus = (uint32_t)0x01;
 164              		.loc 1 316 0
 165 0064 18BF     		it	ne
 166 0066 0123     		movne	r3, #1	@ tmp177,
 317:src/system_stm32l1xx.c ****   }
 318:src/system_stm32l1xx.c ****   else
 319:src/system_stm32l1xx.c ****   {
 320:src/system_stm32l1xx.c ****     HSIStatus = (uint32_t)0x00;
 167              		.loc 1 320 0
 168 0068 0193     		str	r3, [sp, #4]	@ D.6657, HSIStatus
 321:src/system_stm32l1xx.c ****   }
 322:src/system_stm32l1xx.c ****     
 323:src/system_stm32l1xx.c ****   if (HSIStatus == (uint32_t)0x01)
 169              		.loc 1 323 0
 170 006a 019B     		ldr	r3, [sp, #4]	@ HSIStatus.3, HSIStatus
 171 006c 012B     		cmp	r3, #1	@ HSIStatus.3,
 172 006e 06D0     		beq	.L6	@,
 173              	.L11:
 174              	.LBE6:
 175              	.LBE8:
 199:src/system_stm32l1xx.c ****   SCB->VTOR = FLASH_BASE | VECT_TAB_OFFSET; /* Vector Table Relocation in Internal FLASH. */
 176              		.loc 1 199 0
ARM GAS  /tmp/ccgHyjwV.s 			page 10


 177 0070 254B     		ldr	r3, .L22+8	@ tmp179,
 178 0072 4FF00062 		mov	r2, #134217728	@ tmp180,
 179 0076 9A60     		str	r2, [r3, #8]	@ tmp180, MEM[(struct SCB_Type *)3758157056B].VTOR
 201:src/system_stm32l1xx.c **** }
 180              		.loc 1 201 0
 181 0078 02B0     		add	sp, sp, #8	@,,
 182              		@ sp needed	@
 183 007a 30BC     		pop	{r4, r5}	@
 184 007c 7047     		bx	lr	@
 185              	.L6:
 186              	.LBB9:
 187              	.LBB7:
 324:src/system_stm32l1xx.c ****   {
 325:src/system_stm32l1xx.c ****     /* Enable 64-bit access */
 326:src/system_stm32l1xx.c ****     FLASH->ACR |= FLASH_ACR_ACC64;
 188              		.loc 1 326 0
 189 007e 234B     		ldr	r3, .L22+12	@ tmp181,
 327:src/system_stm32l1xx.c ****     
 328:src/system_stm32l1xx.c ****     /* Enable Prefetch Buffer */
 329:src/system_stm32l1xx.c ****     FLASH->ACR |= FLASH_ACR_PRFTEN;
 330:src/system_stm32l1xx.c **** 
 331:src/system_stm32l1xx.c ****     /* Flash 1 wait state */
 332:src/system_stm32l1xx.c ****     FLASH->ACR |= FLASH_ACR_LATENCY;
 333:src/system_stm32l1xx.c ****     
 334:src/system_stm32l1xx.c **** 
 335:src/system_stm32l1xx.c ****     /* Power enable */
 336:src/system_stm32l1xx.c ****     RCC->APB1ENR |= RCC_APB1ENR_PWREN;
 190              		.loc 1 336 0
 191 0080 1F48     		ldr	r0, .L22	@ tmp187,
 326:src/system_stm32l1xx.c ****     FLASH->ACR |= FLASH_ACR_ACC64;
 192              		.loc 1 326 0
 193 0082 1A68     		ldr	r2, [r3]	@ D.6657, MEM[(struct FLASH_TypeDef *)1073888256B].ACR
 337:src/system_stm32l1xx.c ****   
 338:src/system_stm32l1xx.c ****     /* Select the Voltage Range 1 (1.8 V) */
 339:src/system_stm32l1xx.c ****     PWR->CR = PWR_CR_VOS_0;
 194              		.loc 1 339 0
 195 0084 2249     		ldr	r1, .L22+16	@ tmp189,
 326:src/system_stm32l1xx.c ****     FLASH->ACR |= FLASH_ACR_ACC64;
 196              		.loc 1 326 0
 197 0086 42F00402 		orr	r2, r2, #4	@ D.6657, D.6657,
 198 008a 1A60     		str	r2, [r3]	@ D.6657, MEM[(struct FLASH_TypeDef *)1073888256B].ACR
 329:src/system_stm32l1xx.c ****     FLASH->ACR |= FLASH_ACR_PRFTEN;
 199              		.loc 1 329 0
 200 008c 1A68     		ldr	r2, [r3]	@ D.6657, MEM[(struct FLASH_TypeDef *)1073888256B].ACR
 201              		.loc 1 339 0
 202 008e 4FF40064 		mov	r4, #2048	@ tmp190,
 329:src/system_stm32l1xx.c ****     FLASH->ACR |= FLASH_ACR_PRFTEN;
 203              		.loc 1 329 0
 204 0092 42F00202 		orr	r2, r2, #2	@ D.6657, D.6657,
 205 0096 1A60     		str	r2, [r3]	@ D.6657, MEM[(struct FLASH_TypeDef *)1073888256B].ACR
 332:src/system_stm32l1xx.c ****     FLASH->ACR |= FLASH_ACR_LATENCY;
 206              		.loc 1 332 0
 207 0098 1D68     		ldr	r5, [r3]	@ D.6657, MEM[(struct FLASH_TypeDef *)1073888256B].ACR
 340:src/system_stm32l1xx.c ****   
 341:src/system_stm32l1xx.c ****   
 342:src/system_stm32l1xx.c ****     /* Wait Until the Voltage Regulator is ready */
 343:src/system_stm32l1xx.c ****     while((PWR->CSR & PWR_CSR_VOSF) != RESET)
ARM GAS  /tmp/ccgHyjwV.s 			page 11


 208              		.loc 1 343 0
 209 009a 0A46     		mov	r2, r1	@ tmp215, tmp189
 332:src/system_stm32l1xx.c ****     FLASH->ACR |= FLASH_ACR_LATENCY;
 210              		.loc 1 332 0
 211 009c 45F00105 		orr	r5, r5, #1	@ D.6657, D.6657,
 212 00a0 1D60     		str	r5, [r3]	@ D.6657, MEM[(struct FLASH_TypeDef *)1073888256B].ACR
 336:src/system_stm32l1xx.c ****     RCC->APB1ENR |= RCC_APB1ENR_PWREN;
 213              		.loc 1 336 0
 214 00a2 436A     		ldr	r3, [r0, #36]	@ D.6657, MEM[(struct RCC_TypeDef *)1073887232B].APB1ENR
 215 00a4 43F08053 		orr	r3, r3, #268435456	@ D.6657, D.6657,
 216 00a8 4362     		str	r3, [r0, #36]	@ D.6657, MEM[(struct RCC_TypeDef *)1073887232B].APB1ENR
 339:src/system_stm32l1xx.c ****     PWR->CR = PWR_CR_VOS_0;
 217              		.loc 1 339 0
 218 00aa 0C60     		str	r4, [r1]	@ tmp190, MEM[(struct PWR_TypeDef *)1073770496B].CR
 219              	.L8:
 220              		.loc 1 343 0
 221 00ac 5368     		ldr	r3, [r2, #4]	@ D.6657, MEM[(struct PWR_TypeDef *)1073770496B].CSR
 222 00ae D906     		lsls	r1, r3, #27	@, D.6657,
 223 00b0 FCD4     		bmi	.L8	@,
 344:src/system_stm32l1xx.c ****     {
 345:src/system_stm32l1xx.c ****     }
 346:src/system_stm32l1xx.c ****       
 347:src/system_stm32l1xx.c ****     /* HCLK = SYSCLK /1*/
 348:src/system_stm32l1xx.c ****     RCC->CFGR |= (uint32_t)RCC_CFGR_HPRE_DIV1;
 224              		.loc 1 348 0
 225 00b2 134B     		ldr	r3, .L22	@ tmp193,
 226 00b4 9A68     		ldr	r2, [r3, #8]	@ D.6657, MEM[(struct RCC_TypeDef *)1073887232B].CFGR
 349:src/system_stm32l1xx.c ****   
 350:src/system_stm32l1xx.c ****     /* PCLK2 = HCLK /1*/
 351:src/system_stm32l1xx.c ****     RCC->CFGR |= (uint32_t)RCC_CFGR_PPRE2_DIV1;
 352:src/system_stm32l1xx.c ****     
 353:src/system_stm32l1xx.c ****     /* PCLK1 = HCLK /1*/
 354:src/system_stm32l1xx.c ****     RCC->CFGR |= (uint32_t)RCC_CFGR_PPRE1_DIV1;
 355:src/system_stm32l1xx.c ****     
 356:src/system_stm32l1xx.c ****     /*  PLL configuration */
 357:src/system_stm32l1xx.c ****     RCC->CFGR &= (uint32_t)((uint32_t)~(RCC_CFGR_PLLSRC | RCC_CFGR_PLLMUL |
 358:src/system_stm32l1xx.c ****                                         RCC_CFGR_PLLDIV));
 359:src/system_stm32l1xx.c ****     RCC->CFGR |= (uint32_t)(RCC_CFGR_PLLSRC_HSI | RCC_CFGR_PLLMUL4 | RCC_CFGR_PLLDIV2);
 360:src/system_stm32l1xx.c **** 
 361:src/system_stm32l1xx.c ****     /* Enable PLL */
 362:src/system_stm32l1xx.c ****     RCC->CR |= RCC_CR_PLLON;
 363:src/system_stm32l1xx.c **** 
 364:src/system_stm32l1xx.c ****     /* Wait till PLL is ready */
 365:src/system_stm32l1xx.c ****     while((RCC->CR & RCC_CR_PLLRDY) == 0)
 227              		.loc 1 365 0
 228 00b6 1946     		mov	r1, r3	@ tmp214, tmp193
 348:src/system_stm32l1xx.c ****     RCC->CFGR |= (uint32_t)RCC_CFGR_HPRE_DIV1;
 229              		.loc 1 348 0
 230 00b8 9A60     		str	r2, [r3, #8]	@ D.6657, MEM[(struct RCC_TypeDef *)1073887232B].CFGR
 351:src/system_stm32l1xx.c ****     RCC->CFGR |= (uint32_t)RCC_CFGR_PPRE2_DIV1;
 231              		.loc 1 351 0
 232 00ba 9A68     		ldr	r2, [r3, #8]	@ D.6657, MEM[(struct RCC_TypeDef *)1073887232B].CFGR
 233 00bc 9A60     		str	r2, [r3, #8]	@ D.6657, MEM[(struct RCC_TypeDef *)1073887232B].CFGR
 354:src/system_stm32l1xx.c ****     RCC->CFGR |= (uint32_t)RCC_CFGR_PPRE1_DIV1;
 234              		.loc 1 354 0
 235 00be 9A68     		ldr	r2, [r3, #8]	@ D.6657, MEM[(struct RCC_TypeDef *)1073887232B].CFGR
 236 00c0 9A60     		str	r2, [r3, #8]	@ D.6657, MEM[(struct RCC_TypeDef *)1073887232B].CFGR
ARM GAS  /tmp/ccgHyjwV.s 			page 12


 357:src/system_stm32l1xx.c ****     RCC->CFGR &= (uint32_t)((uint32_t)~(RCC_CFGR_PLLSRC | RCC_CFGR_PLLMUL |
 237              		.loc 1 357 0
 238 00c2 9A68     		ldr	r2, [r3, #8]	@ D.6657, MEM[(struct RCC_TypeDef *)1073887232B].CFGR
 239 00c4 22F47D02 		bic	r2, r2, #16580608	@ D.6657, D.6657,
 240 00c8 9A60     		str	r2, [r3, #8]	@ D.6657, MEM[(struct RCC_TypeDef *)1073887232B].CFGR
 359:src/system_stm32l1xx.c ****     RCC->CFGR |= (uint32_t)(RCC_CFGR_PLLSRC_HSI | RCC_CFGR_PLLMUL4 | RCC_CFGR_PLLDIV2);
 241              		.loc 1 359 0
 242 00ca 9A68     		ldr	r2, [r3, #8]	@ D.6657, MEM[(struct RCC_TypeDef *)1073887232B].CFGR
 243 00cc 42F48802 		orr	r2, r2, #4456448	@ D.6657, D.6657,
 244 00d0 9A60     		str	r2, [r3, #8]	@ D.6657, MEM[(struct RCC_TypeDef *)1073887232B].CFGR
 362:src/system_stm32l1xx.c ****     RCC->CR |= RCC_CR_PLLON;
 245              		.loc 1 362 0
 246 00d2 1A68     		ldr	r2, [r3]	@ D.6657, MEM[(struct RCC_TypeDef *)1073887232B].CR
 247 00d4 42F08072 		orr	r2, r2, #16777216	@ D.6657, D.6657,
 248 00d8 1A60     		str	r2, [r3]	@ D.6657, MEM[(struct RCC_TypeDef *)1073887232B].CR
 249              	.L10:
 250              		.loc 1 365 0
 251 00da 0B68     		ldr	r3, [r1]	@ D.6657, MEM[(struct RCC_TypeDef *)1073887232B].CR
 252 00dc 084A     		ldr	r2, .L22	@ tmp205,
 253 00de 9B01     		lsls	r3, r3, #6	@, D.6657,
 254 00e0 FBD5     		bpl	.L10	@,
 366:src/system_stm32l1xx.c ****     {
 367:src/system_stm32l1xx.c ****     }
 368:src/system_stm32l1xx.c ****         
 369:src/system_stm32l1xx.c ****     /* Select PLL as system clock source */
 370:src/system_stm32l1xx.c ****     RCC->CFGR &= (uint32_t)((uint32_t)~(RCC_CFGR_SW));
 255              		.loc 1 370 0
 256 00e2 9368     		ldr	r3, [r2, #8]	@ D.6657, MEM[(struct RCC_TypeDef *)1073887232B].CFGR
 371:src/system_stm32l1xx.c ****     
 372:src/system_stm32l1xx.c ****     RCC->CFGR |= (uint32_t)RCC_CFGR_SW_PLL;
 373:src/system_stm32l1xx.c **** 
 374:src/system_stm32l1xx.c ****     /* Wait till PLL is used as system clock source */
 375:src/system_stm32l1xx.c ****     while ((RCC->CFGR & (uint32_t)RCC_CFGR_SWS) != (uint32_t)RCC_CFGR_SWS_PLL)
 257              		.loc 1 375 0
 258 00e4 1146     		mov	r1, r2	@ tmp213, tmp205
 370:src/system_stm32l1xx.c ****     RCC->CFGR &= (uint32_t)((uint32_t)~(RCC_CFGR_SW));
 259              		.loc 1 370 0
 260 00e6 23F00303 		bic	r3, r3, #3	@ D.6657, D.6657,
 261 00ea 9360     		str	r3, [r2, #8]	@ D.6657, MEM[(struct RCC_TypeDef *)1073887232B].CFGR
 372:src/system_stm32l1xx.c ****     RCC->CFGR |= (uint32_t)RCC_CFGR_SW_PLL;
 262              		.loc 1 372 0
 263 00ec 9368     		ldr	r3, [r2, #8]	@ D.6657, MEM[(struct RCC_TypeDef *)1073887232B].CFGR
 264 00ee 43F00303 		orr	r3, r3, #3	@ D.6657, D.6657,
 265 00f2 9360     		str	r3, [r2, #8]	@ D.6657, MEM[(struct RCC_TypeDef *)1073887232B].CFGR
 266              	.L12:
 267              		.loc 1 375 0
 268 00f4 8B68     		ldr	r3, [r1, #8]	@ D.6657, MEM[(struct RCC_TypeDef *)1073887232B].CFGR
 269 00f6 03F00C03 		and	r3, r3, #12	@ D.6657, D.6657,
 270 00fa 0C2B     		cmp	r3, #12	@ D.6657,
 271 00fc FAD1     		bne	.L12	@,
 272 00fe B7E7     		b	.L11	@
 273              	.L23:
 274              		.align	2
 275              	.L22:
 276 0100 00380240 		.word	1073887232
 277 0104 0CC0FF88 		.word	-1996505076
 278 0108 00ED00E0 		.word	-536810240
ARM GAS  /tmp/ccgHyjwV.s 			page 13


 279 010c 003C0240 		.word	1073888256
 280 0110 00700040 		.word	1073770496
 281              	.LBE7:
 282              	.LBE9:
 283              		.cfi_endproc
 284              	.LFE56:
 285              		.size	SystemInit, .-SystemInit
 286              		.align	2
 287              		.global	SystemCoreClockUpdate
 288              		.thumb
 289              		.thumb_func
 290              		.type	SystemCoreClockUpdate, %function
 291              	SystemCoreClockUpdate:
 292              	.LFB57:
 242:src/system_stm32l1xx.c **** {
 293              		.loc 1 242 0
 294              		.cfi_startproc
 295              		@ args = 0, pretend = 0, frame = 0
 296              		@ frame_needed = 0, uses_anonymous_args = 0
 297              		@ link register save eliminated.
 298              	.LVL0:
 246:src/system_stm32l1xx.c ****   tmp = RCC->CFGR & RCC_CFGR_SWS;
 299              		.loc 1 246 0
 300 0114 1F4B     		ldr	r3, .L33	@ tmp148,
 242:src/system_stm32l1xx.c **** {
 301              		.loc 1 242 0
 302 0116 10B4     		push	{r4}	@
 303              	.LCFI2:
 304              		.cfi_def_cfa_offset 4
 305              		.cfi_offset 4, -4
 246:src/system_stm32l1xx.c ****   tmp = RCC->CFGR & RCC_CFGR_SWS;
 306              		.loc 1 246 0
 307 0118 9B68     		ldr	r3, [r3, #8]	@ D.6661, MEM[(struct RCC_TypeDef *)1073887232B].CFGR
 308              	.LVL1:
 309 011a 03F00C03 		and	r3, r3, #12	@ tmp, D.6661,
 310              	.LVL2:
 248:src/system_stm32l1xx.c ****   switch (tmp)
 311              		.loc 1 248 0
 312 011e 0C2B     		cmp	r3, #12	@ tmp,
 313 0120 08D8     		bhi	.L25	@
 314 0122 DFE803F0 		tbb	[pc, r3]	@ tmp
 315              	.L27:
 316 0126 07       		.byte	(.L25-.L27)/2
 317 0127 07       		.byte	(.L25-.L27)/2
 318 0128 07       		.byte	(.L25-.L27)/2
 319 0129 07       		.byte	(.L25-.L27)/2
 320 012a 1C       		.byte	(.L32-.L27)/2
 321 012b 07       		.byte	(.L25-.L27)/2
 322 012c 07       		.byte	(.L25-.L27)/2
 323 012d 07       		.byte	(.L25-.L27)/2
 324 012e 1F       		.byte	(.L29-.L27)/2
 325 012f 07       		.byte	(.L25-.L27)/2
 326 0130 07       		.byte	(.L25-.L27)/2
 327 0131 07       		.byte	(.L25-.L27)/2
 328 0132 22       		.byte	(.L30-.L27)/2
 329 0133 00       		.align	1
 330              	.L25:
ARM GAS  /tmp/ccgHyjwV.s 			page 14


 281:src/system_stm32l1xx.c ****       msirange = (RCC->ICSCR & RCC_ICSCR_MSIRANGE) >> 13;
 331              		.loc 1 281 0
 332 0134 174B     		ldr	r3, .L33	@ tmp169,
 333              	.LVL3:
 282:src/system_stm32l1xx.c ****       SystemCoreClock = (32768 * (1 << (msirange + 1)));
 334              		.loc 1 282 0
 335 0136 4FF40041 		mov	r1, #32768	@ tmp173,
 281:src/system_stm32l1xx.c ****       msirange = (RCC->ICSCR & RCC_ICSCR_MSIRANGE) >> 13;
 336              		.loc 1 281 0
 337 013a 5A68     		ldr	r2, [r3, #4]	@ D.6661,
 338              	.LVL4:
 339 013c 164B     		ldr	r3, .L33+4	@ tmp183,
 340 013e C2F34232 		ubfx	r2, r2, #13, #3	@ msirange, D.6661,,
 341              	.LVL5:
 282:src/system_stm32l1xx.c ****       SystemCoreClock = (32768 * (1 << (msirange + 1)));
 342              		.loc 1 282 0
 343 0142 0132     		adds	r2, r2, #1	@ D.6661, msirange,
 344 0144 01FA02F2 		lsl	r2, r1, r2	@ D.6664, tmp173, D.6661
 345              	.LVL6:
 346              	.L28:
 287:src/system_stm32l1xx.c ****   tmp = AHBPrescTable[((RCC->CFGR & RCC_CFGR_HPRE) >> 4)];
 347              		.loc 1 287 0
 348 0148 1249     		ldr	r1, .L33	@ tmp174,
 290:src/system_stm32l1xx.c **** }
 349              		.loc 1 290 0
 350 014a 5DF8044B 		ldr	r4, [sp], #4	@,
 287:src/system_stm32l1xx.c ****   tmp = AHBPrescTable[((RCC->CFGR & RCC_CFGR_HPRE) >> 4)];
 351              		.loc 1 287 0
 352 014e 8968     		ldr	r1, [r1, #8]	@ D.6661, MEM[(struct RCC_TypeDef *)1073887232B].CFGR
 353 0150 C1F30311 		ubfx	r1, r1, #4, #4	@ D.6661, D.6661,,
 354 0154 1944     		add	r1, r1, r3	@ tmp177, tmp183
 355 0156 097B     		ldrb	r1, [r1, #12]	@ zero_extendqisi2	@ tmp180, AHBPrescTable
 356              	.LVL7:
 289:src/system_stm32l1xx.c ****   SystemCoreClock >>= tmp;
 357              		.loc 1 289 0
 358 0158 CA40     		lsrs	r2, r2, r1	@ SystemCoreClock.9, D.6664, tmp180
 359 015a DA61     		str	r2, [r3, #28]	@ SystemCoreClock.9, SystemCoreClock
 290:src/system_stm32l1xx.c **** }
 360              		.loc 1 290 0
 361 015c 7047     		bx	lr	@
 362              	.LVL8:
 363              	.L32:
 248:src/system_stm32l1xx.c ****   switch (tmp)
 364              		.loc 1 248 0
 365 015e 0F4A     		ldr	r2, .L33+8	@ D.6664,
 366 0160 0D4B     		ldr	r3, .L33+4	@ tmp183,
 367              	.LVL9:
 368 0162 F1E7     		b	.L28	@
 369              	.LVL10:
 370              	.L29:
 259:src/system_stm32l1xx.c ****       break;
 371              		.loc 1 259 0
 372 0164 0E4A     		ldr	r2, .L33+12	@ D.6664,
 373 0166 0C4B     		ldr	r3, .L33+4	@ tmp183,
 374              	.LVL11:
 375 0168 EEE7     		b	.L28	@
 376              	.LVL12:
ARM GAS  /tmp/ccgHyjwV.s 			page 15


 377              	.L30:
 262:src/system_stm32l1xx.c ****       pllmul = RCC->CFGR & RCC_CFGR_PLLMUL;
 378              		.loc 1 262 0
 379 016a 0A49     		ldr	r1, .L33	@ tmp155,
 264:src/system_stm32l1xx.c ****       pllmul = PLLMulTable[(pllmul >> 18)];
 380              		.loc 1 264 0
 381 016c 0A4B     		ldr	r3, .L33+4	@ tmp183,
 382              	.LVL13:
 262:src/system_stm32l1xx.c ****       pllmul = RCC->CFGR & RCC_CFGR_PLLMUL;
 383              		.loc 1 262 0
 384 016e 8A68     		ldr	r2, [r1, #8]	@ D.6661, MEM[(struct RCC_TypeDef *)1073887232B].CFGR
 385              	.LVL14:
 263:src/system_stm32l1xx.c ****       plldiv = RCC->CFGR & RCC_CFGR_PLLDIV;
 386              		.loc 1 263 0
 387 0170 8C68     		ldr	r4, [r1, #8]	@ D.6661, MEM[(struct RCC_TypeDef *)1073887232B].CFGR
 388              	.LVL15:
 264:src/system_stm32l1xx.c ****       pllmul = PLLMulTable[(pllmul >> 18)];
 389              		.loc 1 264 0
 390 0172 C2F38342 		ubfx	r2, r2, #18, #4	@ D.6661, D.6661,,
 391              	.LVL16:
 392 0176 9A5C     		ldrb	r2, [r3, r2]	@ zero_extendqisi2	@ tmp161, PLLMulTable
 267:src/system_stm32l1xx.c ****       pllsource = RCC->CFGR & RCC_CFGR_PLLSRC;
 393              		.loc 1 267 0
 394 0178 8868     		ldr	r0, [r1, #8]	@ D.6661, MEM[(struct RCC_TypeDef *)1073887232B].CFGR
 264:src/system_stm32l1xx.c ****       pllmul = PLLMulTable[(pllmul >> 18)];
 395              		.loc 1 264 0
 396 017a D2B2     		uxtb	r2, r2	@ D.6663, tmp161
 397              	.LVL17:
 269:src/system_stm32l1xx.c ****       if (pllsource == 0x00)
 398              		.loc 1 269 0
 399 017c C003     		lsls	r0, r0, #15	@, D.6661,
 272:src/system_stm32l1xx.c ****         SystemCoreClock = (((HSI_VALUE) * pllmul) / plldiv);
 400              		.loc 1 272 0
 401 017e 54BF     		ite	pl
 402 0180 0648     		ldrpl	r0, .L33+8	@ tmp166,
 277:src/system_stm32l1xx.c ****         SystemCoreClock = (((HSE_VALUE) * pllmul) / plldiv);
 403              		.loc 1 277 0
 404 0182 0748     		ldrmi	r0, .L33+12	@ tmp168,
 265:src/system_stm32l1xx.c ****       plldiv = (plldiv >> 22) + 1;
 405              		.loc 1 265 0
 406 0184 C4F38151 		ubfx	r1, r4, #22, #2	@ D.6661, D.6661,,
 277:src/system_stm32l1xx.c ****         SystemCoreClock = (((HSE_VALUE) * pllmul) / plldiv);
 407              		.loc 1 277 0
 408 0188 00FB02F2 		mul	r2, r0, r2	@ D.6661, tmp168, D.6663
 409              	.LVL18:
 265:src/system_stm32l1xx.c ****       plldiv = (plldiv >> 22) + 1;
 410              		.loc 1 265 0
 411 018c 0131     		adds	r1, r1, #1	@ plldiv, D.6661,
 412              	.LVL19:
 277:src/system_stm32l1xx.c ****         SystemCoreClock = (((HSE_VALUE) * pllmul) / plldiv);
 413              		.loc 1 277 0
 414 018e B2FBF1F2 		udiv	r2, r2, r1	@ D.6664, D.6661, plldiv
 415 0192 D9E7     		b	.L28	@
 416              	.L34:
 417              		.align	2
 418              	.L33:
 419 0194 00380240 		.word	1073887232
ARM GAS  /tmp/ccgHyjwV.s 			page 16


 420 0198 00000000 		.word	.LANCHOR0
 421 019c 0024F400 		.word	16000000
 422 01a0 00127A00 		.word	8000000
 423              		.cfi_endproc
 424              	.LFE57:
 425              		.size	SystemCoreClockUpdate, .-SystemCoreClockUpdate
 426              		.global	AHBPrescTable
 427              		.global	PLLMulTable
 428              		.global	SystemCoreClock
 429              		.data
 430              		.align	2
 431              		.set	.LANCHOR0,. + 0
 432              		.type	PLLMulTable, %object
 433              		.size	PLLMulTable, 9
 434              	PLLMulTable:
 435 0000 03       		.byte	3
 436 0001 04       		.byte	4
 437 0002 06       		.byte	6
 438 0003 08       		.byte	8
 439 0004 0C       		.byte	12
 440 0005 10       		.byte	16
 441 0006 18       		.byte	24
 442 0007 20       		.byte	32
 443 0008 30       		.byte	48
 444 0009 000000   		.space	3
 445              		.type	AHBPrescTable, %object
 446              		.size	AHBPrescTable, 16
 447              	AHBPrescTable:
 448 000c 00       		.byte	0
 449 000d 00       		.byte	0
 450 000e 00       		.byte	0
 451 000f 00       		.byte	0
 452 0010 00       		.byte	0
 453 0011 00       		.byte	0
 454 0012 00       		.byte	0
 455 0013 00       		.byte	0
 456 0014 01       		.byte	1
 457 0015 02       		.byte	2
 458 0016 03       		.byte	3
 459 0017 04       		.byte	4
 460 0018 06       		.byte	6
 461 0019 07       		.byte	7
 462 001a 08       		.byte	8
 463 001b 09       		.byte	9
 464              		.type	SystemCoreClock, %object
 465              		.size	SystemCoreClock, 4
 466              	SystemCoreClock:
 467 001c 0048E801 		.word	32000000
 468              		.text
 469              	.Letext0:
 470              		.file 2 "/home/zbanks/gcc-arm-none-eabi/arm-none-eabi/include/stdint.h"
 471              		.file 3 "./inc/core_cm3.h"
 472              		.file 4 "./inc/stm32l1xx.h"